; Listing generated by Microsoft (R) Optimizing Compiler Version 16.00.40219.01 

	TITLE	C:\Users\OJ\Documents\Visual Studio 2010\Projects\CVDetectorDLL\CVDetectorDLL.cpp
	.686P
	.XMM
	include listing.inc
	.model	flat

INCLUDELIB OLDNAMES

PUBLIC	??_R4CascadeClassifier@cv@@6B@			; cv::CascadeClassifier::`RTTI Complete Object Locator'
PUBLIC	??_R3CascadeClassifier@cv@@8			; cv::CascadeClassifier::`RTTI Class Hierarchy Descriptor'
PUBLIC	??_R2CascadeClassifier@cv@@8			; cv::CascadeClassifier::`RTTI Base Class Array'
PUBLIC	??_R1A@?0A@EA@CascadeClassifier@cv@@8		; cv::CascadeClassifier::`RTTI Base Class Descriptor at (0,-1,0,64)'
PUBLIC	??_R0?AVCascadeClassifier@cv@@@8		; cv::CascadeClassifier `RTTI Type Descriptor'
PUBLIC	??_R4_OutputArray@cv@@6B@			; cv::_OutputArray::`RTTI Complete Object Locator'
PUBLIC	??_R3_OutputArray@cv@@8				; cv::_OutputArray::`RTTI Class Hierarchy Descriptor'
PUBLIC	??_R2_OutputArray@cv@@8				; cv::_OutputArray::`RTTI Base Class Array'
PUBLIC	??_R1A@?0A@EA@_OutputArray@cv@@8		; cv::_OutputArray::`RTTI Base Class Descriptor at (0,-1,0,64)'
PUBLIC	??_R0?AV_OutputArray@cv@@@8			; cv::_OutputArray `RTTI Type Descriptor'
PUBLIC	??_R4_InputArray@cv@@6B@			; cv::_InputArray::`RTTI Complete Object Locator'
PUBLIC	??_R3_InputArray@cv@@8				; cv::_InputArray::`RTTI Class Hierarchy Descriptor'
PUBLIC	??_R2_InputArray@cv@@8				; cv::_InputArray::`RTTI Base Class Array'
PUBLIC	??_R1A@?0A@EA@_InputArray@cv@@8			; cv::_InputArray::`RTTI Base Class Descriptor at (0,-1,0,64)'
PUBLIC	??_R0?AV_InputArray@cv@@@8			; cv::_InputArray `RTTI Type Descriptor'
PUBLIC	??_R4?$basic_stringstream@DU?$char_traits@D@std@@V?$allocator@D@2@@std@@6B@ ; std::basic_stringstream<char,std::char_traits<char>,std::allocator<char> >::`RTTI Complete Object Locator'
PUBLIC	??_R3?$basic_stringstream@DU?$char_traits@D@std@@V?$allocator@D@2@@std@@8 ; std::basic_stringstream<char,std::char_traits<char>,std::allocator<char> >::`RTTI Class Hierarchy Descriptor'
PUBLIC	??_R2?$basic_stringstream@DU?$char_traits@D@std@@V?$allocator@D@2@@std@@8 ; std::basic_stringstream<char,std::char_traits<char>,std::allocator<char> >::`RTTI Base Class Array'
PUBLIC	??_R1A@?0A@EA@?$basic_iostream@DU?$char_traits@D@std@@@std@@8 ; std::basic_iostream<char,std::char_traits<char> >::`RTTI Base Class Descriptor at (0,-1,0,64)'
PUBLIC	??_R3?$basic_iostream@DU?$char_traits@D@std@@@std@@8 ; std::basic_iostream<char,std::char_traits<char> >::`RTTI Class Hierarchy Descriptor'
PUBLIC	??_R2?$basic_iostream@DU?$char_traits@D@std@@@std@@8 ; std::basic_iostream<char,std::char_traits<char> >::`RTTI Base Class Array'
PUBLIC	??_R1BA@?0A@EA@?$basic_ostream@DU?$char_traits@D@std@@@std@@8 ; std::basic_ostream<char,std::char_traits<char> >::`RTTI Base Class Descriptor at (16,-1,0,64)'
PUBLIC	??_R3?$basic_ostream@DU?$char_traits@D@std@@@std@@8 ; std::basic_ostream<char,std::char_traits<char> >::`RTTI Class Hierarchy Descriptor'
PUBLIC	??_R2?$basic_ostream@DU?$char_traits@D@std@@@std@@8 ; std::basic_ostream<char,std::char_traits<char> >::`RTTI Base Class Array'
PUBLIC	??_R1A@?0A@EA@?$basic_ostream@DU?$char_traits@D@std@@@std@@8 ; std::basic_ostream<char,std::char_traits<char> >::`RTTI Base Class Descriptor at (0,-1,0,64)'
PUBLIC	??_R0?AV?$basic_ostream@DU?$char_traits@D@std@@@std@@@8 ; std::basic_ostream<char,std::char_traits<char> > `RTTI Type Descriptor'
PUBLIC	??_R1A@?0A@EA@?$basic_istream@DU?$char_traits@D@std@@@std@@8 ; std::basic_istream<char,std::char_traits<char> >::`RTTI Base Class Descriptor at (0,-1,0,64)'
PUBLIC	??_R3?$basic_istream@DU?$char_traits@D@std@@@std@@8 ; std::basic_istream<char,std::char_traits<char> >::`RTTI Class Hierarchy Descriptor'
PUBLIC	??_R2?$basic_istream@DU?$char_traits@D@std@@@std@@8 ; std::basic_istream<char,std::char_traits<char> >::`RTTI Base Class Array'
PUBLIC	??_R17A@3EA@?$_Iosb@H@std@@8			; std::_Iosb<int>::`RTTI Base Class Descriptor at (8,0,4,64)'
PUBLIC	??_R1A@A@3EA@ios_base@std@@8			; std::ios_base::`RTTI Base Class Descriptor at (0,0,4,64)'
PUBLIC	??_R1A@A@3FA@?$basic_ios@DU?$char_traits@D@std@@@std@@8 ; std::basic_ios<char,std::char_traits<char> >::`RTTI Base Class Descriptor at (0,0,4,80)'
PUBLIC	??_R3?$basic_ios@DU?$char_traits@D@std@@@std@@8	; std::basic_ios<char,std::char_traits<char> >::`RTTI Class Hierarchy Descriptor'
PUBLIC	??_R2?$basic_ios@DU?$char_traits@D@std@@@std@@8	; std::basic_ios<char,std::char_traits<char> >::`RTTI Base Class Array'
PUBLIC	??_R1A@?0A@EA@ios_base@std@@8			; std::ios_base::`RTTI Base Class Descriptor at (0,-1,0,64)'
PUBLIC	??_R3ios_base@std@@8				; std::ios_base::`RTTI Class Hierarchy Descriptor'
PUBLIC	??_R2ios_base@std@@8				; std::ios_base::`RTTI Base Class Array'
PUBLIC	??_R17?0A@EA@?$_Iosb@H@std@@8			; std::_Iosb<int>::`RTTI Base Class Descriptor at (8,-1,0,64)'
PUBLIC	??_R3?$_Iosb@H@std@@8				; std::_Iosb<int>::`RTTI Class Hierarchy Descriptor'
PUBLIC	??_R2?$_Iosb@H@std@@8				; std::_Iosb<int>::`RTTI Base Class Array'
PUBLIC	??_R1A@?0A@EA@?$_Iosb@H@std@@8			; std::_Iosb<int>::`RTTI Base Class Descriptor at (0,-1,0,64)'
PUBLIC	??_R0?AV?$_Iosb@H@std@@@8			; std::_Iosb<int> `RTTI Type Descriptor'
PUBLIC	??_R0?AVios_base@std@@@8			; std::ios_base `RTTI Type Descriptor'
PUBLIC	??_R1A@?0A@EA@?$basic_ios@DU?$char_traits@D@std@@@std@@8 ; std::basic_ios<char,std::char_traits<char> >::`RTTI Base Class Descriptor at (0,-1,0,64)'
PUBLIC	??_R0?AV?$basic_ios@DU?$char_traits@D@std@@@std@@@8 ; std::basic_ios<char,std::char_traits<char> > `RTTI Type Descriptor'
PUBLIC	??_R0?AV?$basic_istream@DU?$char_traits@D@std@@@std@@@8 ; std::basic_istream<char,std::char_traits<char> > `RTTI Type Descriptor'
PUBLIC	??_R0?AV?$basic_iostream@DU?$char_traits@D@std@@@std@@@8 ; std::basic_iostream<char,std::char_traits<char> > `RTTI Type Descriptor'
PUBLIC	??_R1A@?0A@EA@?$basic_stringstream@DU?$char_traits@D@std@@V?$allocator@D@2@@std@@8 ; std::basic_stringstream<char,std::char_traits<char>,std::allocator<char> >::`RTTI Base Class Descriptor at (0,-1,0,64)'
PUBLIC	??_R0?AV?$basic_stringstream@DU?$char_traits@D@std@@V?$allocator@D@2@@std@@@8 ; std::basic_stringstream<char,std::char_traits<char>,std::allocator<char> > `RTTI Type Descriptor'
PUBLIC	??_R4?$basic_stringbuf@DU?$char_traits@D@std@@V?$allocator@D@2@@std@@6B@ ; std::basic_stringbuf<char,std::char_traits<char>,std::allocator<char> >::`RTTI Complete Object Locator'
PUBLIC	??_R3?$basic_stringbuf@DU?$char_traits@D@std@@V?$allocator@D@2@@std@@8 ; std::basic_stringbuf<char,std::char_traits<char>,std::allocator<char> >::`RTTI Class Hierarchy Descriptor'
PUBLIC	??_R2?$basic_stringbuf@DU?$char_traits@D@std@@V?$allocator@D@2@@std@@8 ; std::basic_stringbuf<char,std::char_traits<char>,std::allocator<char> >::`RTTI Base Class Array'
PUBLIC	??_R1A@?0A@EA@?$basic_streambuf@DU?$char_traits@D@std@@@std@@8 ; std::basic_streambuf<char,std::char_traits<char> >::`RTTI Base Class Descriptor at (0,-1,0,64)'
PUBLIC	??_R3?$basic_streambuf@DU?$char_traits@D@std@@@std@@8 ; std::basic_streambuf<char,std::char_traits<char> >::`RTTI Class Hierarchy Descriptor'
PUBLIC	??_R2?$basic_streambuf@DU?$char_traits@D@std@@@std@@8 ; std::basic_streambuf<char,std::char_traits<char> >::`RTTI Base Class Array'
PUBLIC	??_R0?AV?$basic_streambuf@DU?$char_traits@D@std@@@std@@@8 ; std::basic_streambuf<char,std::char_traits<char> > `RTTI Type Descriptor'
PUBLIC	??_R1A@?0A@EA@?$basic_stringbuf@DU?$char_traits@D@std@@V?$allocator@D@2@@std@@8 ; std::basic_stringbuf<char,std::char_traits<char>,std::allocator<char> >::`RTTI Base Class Descriptor at (0,-1,0,64)'
PUBLIC	??_R0?AV?$basic_stringbuf@DU?$char_traits@D@std@@V?$allocator@D@2@@std@@@8 ; std::basic_stringbuf<char,std::char_traits<char>,std::allocator<char> > `RTTI Type Descriptor'
PUBLIC	??_R4bad_alloc@std@@6B@				; std::bad_alloc::`RTTI Complete Object Locator'
PUBLIC	??_R3bad_alloc@std@@8				; std::bad_alloc::`RTTI Class Hierarchy Descriptor'
PUBLIC	??_R2bad_alloc@std@@8				; std::bad_alloc::`RTTI Base Class Array'
PUBLIC	??_R1A@?0A@EA@exception@std@@8			; std::exception::`RTTI Base Class Descriptor at (0,-1,0,64)'
PUBLIC	??_R3exception@std@@8				; std::exception::`RTTI Class Hierarchy Descriptor'
PUBLIC	??_R2exception@std@@8				; std::exception::`RTTI Base Class Array'
PUBLIC	??_R1A@?0A@EA@bad_alloc@std@@8			; std::bad_alloc::`RTTI Base Class Descriptor at (0,-1,0,64)'
PUBLIC	?_Init@?$basic_stringbuf@DU?$char_traits@D@std@@V?$allocator@D@2@@std@@IAEXPBDIH@Z ; std::basic_stringbuf<char,std::char_traits<char>,std::allocator<char> >::_Init
PUBLIC	?_Getstate@?$basic_stringbuf@DU?$char_traits@D@std@@V?$allocator@D@2@@std@@AAEHH@Z ; std::basic_stringbuf<char,std::char_traits<char>,std::allocator<char> >::_Getstate
PUBLIC	??0?$basic_stringbuf@DU?$char_traits@D@std@@V?$allocator@D@2@@std@@QAE@H@Z ; std::basic_stringbuf<char,std::char_traits<char>,std::allocator<char> >::basic_stringbuf<char,std::char_traits<char>,std::allocator<char> >
PUBLIC	??0?$basic_stringstream@DU?$char_traits@D@std@@V?$allocator@D@2@@std@@QAE@H@Z ; std::basic_stringstream<char,std::char_traits<char>,std::allocator<char> >::basic_stringstream<char,std::char_traits<char>,std::allocator<char> >
PUBLIC	??0?$basic_string@DU?$char_traits@D@std@@V?$allocator@D@2@@std@@QAE@PBDI@Z ; std::basic_string<char,std::char_traits<char>,std::allocator<char> >::basic_string<char,std::char_traits<char>,std::allocator<char> >
PUBLIC	?assign@?$basic_string@DU?$char_traits@D@std@@V?$allocator@D@2@@std@@QAEAAV12@ABV12@@Z ; std::basic_string<char,std::char_traits<char>,std::allocator<char> >::assign
PUBLIC	??4?$basic_string@DU?$char_traits@D@std@@V?$allocator@D@2@@std@@QAEAAV01@ABV01@@Z ; std::basic_string<char,std::char_traits<char>,std::allocator<char> >::operator=
PUBLIC	?get_allocator@?$basic_string@DU?$char_traits@D@std@@V?$allocator@D@2@@std@@QBE?AV?$allocator@D@2@XZ ; std::basic_string<char,std::char_traits<char>,std::allocator<char> >::get_allocator
PUBLIC	??$?8DD@std@@YA_NABV?$allocator@D@0@0@Z		; std::operator==<char,char>
PUBLIC	??$?9DD@std@@YA_NABV?$allocator@D@0@0@Z		; std::operator!=<char,char>
PUBLIC	?assign@?$basic_string@DU?$char_traits@D@std@@V?$allocator@D@2@@std@@QAEAAV12@$$QAV12@@Z ; std::basic_string<char,std::char_traits<char>,std::allocator<char> >::assign
PUBLIC	??$forward@V?$allocator@D@std@@@std@@YA$$QAV?$allocator@D@0@AAV10@@Z ; std::forward<std::allocator<char> >
PUBLIC	??$forward@V?$basic_string@DU?$char_traits@D@std@@V?$allocator@D@2@@std@@@std@@YA$$QAV?$basic_string@DU?$char_traits@D@std@@V?$allocator@D@2@@0@AAV10@@Z ; std::forward<std::basic_string<char,std::char_traits<char>,std::allocator<char> > >
PUBLIC	??0?$basic_string@DU?$char_traits@D@std@@V?$allocator@D@2@@std@@QAE@$$QAV01@@Z ; std::basic_string<char,std::char_traits<char>,std::allocator<char> >::basic_string<char,std::char_traits<char>,std::allocator<char> >
PUBLIC	?str@?$basic_stringbuf@DU?$char_traits@D@std@@V?$allocator@D@2@@std@@QBE?AV?$basic_string@DU?$char_traits@D@std@@V?$allocator@D@2@@2@XZ ; std::basic_stringbuf<char,std::char_traits<char>,std::allocator<char> >::str
PUBLIC	?str@?$basic_stringstream@DU?$char_traits@D@std@@V?$allocator@D@2@@std@@QBE?AV?$basic_string@DU?$char_traits@D@std@@V?$allocator@D@2@@2@XZ ; std::basic_stringstream<char,std::char_traits<char>,std::allocator<char> >::str
PUBLIC	?_Tidy@?$basic_stringbuf@DU?$char_traits@D@std@@V?$allocator@D@2@@std@@IAEXXZ ; std::basic_stringbuf<char,std::char_traits<char>,std::allocator<char> >::_Tidy
PUBLIC	?overflow@?$basic_stringbuf@DU?$char_traits@D@std@@V?$allocator@D@2@@std@@MAEHH@Z ; std::basic_stringbuf<char,std::char_traits<char>,std::allocator<char> >::overflow
PUBLIC	?eq@?$char_traits@D@std@@SA_NABD0@Z		; std::char_traits<char>::eq
PUBLIC	?to_char_type@?$char_traits@D@std@@SADABH@Z	; std::char_traits<char>::to_char_type
PUBLIC	?eq_int_type@?$char_traits@D@std@@SA_NABH0@Z	; std::char_traits<char>::eq_int_type
PUBLIC	?not_eof@?$char_traits@D@std@@SAHABH@Z		; std::char_traits<char>::not_eof
PUBLIC	?pbackfail@?$basic_stringbuf@DU?$char_traits@D@std@@V?$allocator@D@2@@std@@MAEHH@Z ; std::basic_stringbuf<char,std::char_traits<char>,std::allocator<char> >::pbackfail
PUBLIC	?to_int_type@?$char_traits@D@std@@SAHABD@Z	; std::char_traits<char>::to_int_type
PUBLIC	?eof@?$char_traits@D@std@@SAHXZ			; std::char_traits<char>::eof
PUBLIC	?underflow@?$basic_stringbuf@DU?$char_traits@D@std@@V?$allocator@D@2@@std@@MAEHXZ ; std::basic_stringbuf<char,std::char_traits<char>,std::allocator<char> >::underflow
PUBLIC	?seekoff@?$basic_stringbuf@DU?$char_traits@D@std@@V?$allocator@D@2@@std@@MAE?AV?$fpos@H@2@_JHH@Z ; std::basic_stringbuf<char,std::char_traits<char>,std::allocator<char> >::seekoff
PUBLIC	??0?$fpos@H@std@@QAE@_J@Z			; std::fpos<int>::fpos<int>
PUBLIC	??B?$fpos@H@std@@QBE_JXZ			; std::fpos<int>::operator __int64
PUBLIC	?seekpos@?$basic_stringbuf@DU?$char_traits@D@std@@V?$allocator@D@2@@std@@MAE?AV?$fpos@H@2@V32@H@Z ; std::basic_stringbuf<char,std::char_traits<char>,std::allocator<char> >::seekpos
PUBLIC	??_G?$basic_stringbuf@DU?$char_traits@D@std@@V?$allocator@D@2@@std@@UAEPAXI@Z ; std::basic_stringbuf<char,std::char_traits<char>,std::allocator<char> >::`scalar deleting destructor'
PUBLIC	??1?$basic_stringbuf@DU?$char_traits@D@std@@V?$allocator@D@2@@std@@UAE@XZ ; std::basic_stringbuf<char,std::char_traits<char>,std::allocator<char> >::~basic_stringbuf<char,std::char_traits<char>,std::allocator<char> >
PUBLIC	??_G?$basic_stringstream@DU?$char_traits@D@std@@V?$allocator@D@2@@std@@UAEPAXI@Z ; std::basic_stringstream<char,std::char_traits<char>,std::allocator<char> >::`scalar deleting destructor'
PUBLIC	??1?$basic_stringstream@DU?$char_traits@D@std@@V?$allocator@D@2@@std@@UAE@XZ ; std::basic_stringstream<char,std::char_traits<char>,std::allocator<char> >::~basic_stringstream<char,std::char_traits<char>,std::allocator<char> >
PUBLIC	??_D?$basic_stringstream@DU?$char_traits@D@std@@V?$allocator@D@2@@std@@QAEXXZ ; std::basic_stringstream<char,std::char_traits<char>,std::allocator<char> >::`vbase destructor'
PUBLIC	?type@Mat@cv@@QBEHXZ				; cv::Mat::type
PUBLIC	?create@Mat@cv@@QAEXHHH@Z			; cv::Mat::create
PUBLIC	??0?$Point_@H@cv@@QAE@ABV01@@Z			; cv::Point_<int>::Point_<int>
PUBLIC	??0?$allocator@V?$Rect_@H@cv@@@std@@QAE@XZ	; std::allocator<cv::Rect_<int> >::allocator<cv::Rect_<int> >
PUBLIC	??0?$allocator@V?$Rect_@H@cv@@@std@@QAE@ABV01@@Z ; std::allocator<cv::Rect_<int> >::allocator<cv::Rect_<int> >
PUBLIC	??0?$_Vector_val@V?$Rect_@H@cv@@V?$allocator@V?$Rect_@H@cv@@@std@@@std@@QAE@V?$allocator@V?$Rect_@H@cv@@@1@@Z ; std::_Vector_val<cv::Rect_<int>,std::allocator<cv::Rect_<int> > >::_Vector_val<cv::Rect_<int>,std::allocator<cv::Rect_<int> > >
PUBLIC	??0?$vector@V?$Rect_@H@cv@@V?$allocator@V?$Rect_@H@cv@@@std@@@std@@QAE@XZ ; std::vector<cv::Rect_<int>,std::allocator<cv::Rect_<int> > >::vector<cv::Rect_<int>,std::allocator<cv::Rect_<int> > >
PUBLIC	??1?$_Vector_val@V?$Rect_@H@cv@@V?$allocator@V?$Rect_@H@cv@@@std@@@std@@QAE@XZ ; std::_Vector_val<cv::Rect_<int>,std::allocator<cv::Rect_<int> > >::~_Vector_val<cv::Rect_<int>,std::allocator<cv::Rect_<int> > >
PUBLIC	?deallocate@?$allocator@V?$Rect_@H@cv@@@std@@QAEXPAV?$Rect_@H@cv@@I@Z ; std::allocator<cv::Rect_<int> >::deallocate
PUBLIC	??$_Ptr_cat@V?$Rect_@H@cv@@V12@@std@@YA?AU_Nonscalar_ptr_iterator_tag@0@PAV?$Rect_@H@cv@@0@Z ; std::_Ptr_cat<cv::Rect_<int>,cv::Rect_<int> >
PUBLIC	??$_Destroy@V?$Rect_@H@cv@@@std@@YAXPAV?$Rect_@H@cv@@@Z ; std::_Destroy<cv::Rect_<int> >
PUBLIC	?destroy@?$allocator@V?$Rect_@H@cv@@@std@@QAEXPAV?$Rect_@H@cv@@@Z ; std::allocator<cv::Rect_<int> >::destroy
PUBLIC	??$_Dest_val@V?$allocator@V?$Rect_@H@cv@@@std@@V?$Rect_@H@cv@@@std@@YAXAAV?$allocator@V?$Rect_@H@cv@@@0@PAV?$Rect_@H@cv@@@Z ; std::_Dest_val<std::allocator<cv::Rect_<int> >,cv::Rect_<int> >
PUBLIC	??$_Destroy_range@V?$allocator@V?$Rect_@H@cv@@@std@@@std@@YAXPAV?$Rect_@H@cv@@0AAV?$allocator@V?$Rect_@H@cv@@@0@U_Nonscalar_ptr_iterator_tag@0@@Z ; std::_Destroy_range<std::allocator<cv::Rect_<int> > >
PUBLIC	??$_Destroy_range@V?$allocator@V?$Rect_@H@cv@@@std@@@std@@YAXPAV?$Rect_@H@cv@@0AAV?$allocator@V?$Rect_@H@cv@@@0@@Z ; std::_Destroy_range<std::allocator<cv::Rect_<int> > >
PUBLIC	?_Destroy@?$vector@V?$Rect_@H@cv@@V?$allocator@V?$Rect_@H@cv@@@std@@@std@@IAEXPAV?$Rect_@H@cv@@0@Z ; std::vector<cv::Rect_<int>,std::allocator<cv::Rect_<int> > >::_Destroy
PUBLIC	?_Tidy@?$vector@V?$Rect_@H@cv@@V?$allocator@V?$Rect_@H@cv@@@std@@@std@@IAEXXZ ; std::vector<cv::Rect_<int>,std::allocator<cv::Rect_<int> > >::_Tidy
PUBLIC	??1?$vector@V?$Rect_@H@cv@@V?$allocator@V?$Rect_@H@cv@@@std@@@std@@QAE@XZ ; std::vector<cv::Rect_<int>,std::allocator<cv::Rect_<int> > >::~vector<cv::Rect_<int>,std::allocator<cv::Rect_<int> > >
PUBLIC	?size@?$vector@V?$Rect_@H@cv@@V?$allocator@V?$Rect_@H@cv@@@std@@@std@@QBEIXZ ; std::vector<cv::Rect_<int>,std::allocator<cv::Rect_<int> > >::size
PUBLIC	??A?$vector@V?$Rect_@H@cv@@V?$allocator@V?$Rect_@H@cv@@@std@@@std@@QAEAAV?$Rect_@H@cv@@I@Z ; std::vector<cv::Rect_<int>,std::allocator<cv::Rect_<int> > >::operator[]
PUBLIC	??0?$Point_@H@cv@@QAE@XZ			; cv::Point_<int>::Point_<int>
PUBLIC	??0?$allocator@V?$vector@V?$Point_@H@cv@@V?$allocator@V?$Point_@H@cv@@@std@@@std@@@std@@QAE@XZ ; std::allocator<std::vector<cv::Point_<int>,std::allocator<cv::Point_<int> > > >::allocator<std::vector<cv::Point_<int>,std::allocator<cv::Point_<int> > > >
PUBLIC	??0?$allocator@V?$vector@V?$Point_@H@cv@@V?$allocator@V?$Point_@H@cv@@@std@@@std@@@std@@QAE@ABV01@@Z ; std::allocator<std::vector<cv::Point_<int>,std::allocator<cv::Point_<int> > > >::allocator<std::vector<cv::Point_<int>,std::allocator<cv::Point_<int> > > >
PUBLIC	??0?$_Vector_val@V?$vector@V?$Point_@H@cv@@V?$allocator@V?$Point_@H@cv@@@std@@@std@@V?$allocator@V?$vector@V?$Point_@H@cv@@V?$allocator@V?$Point_@H@cv@@@std@@@std@@@2@@std@@QAE@V?$allocator@V?$vector@V?$Point_@H@cv@@V?$allocator@V?$Point_@H@cv@@@std@@@std@@@1@@Z ; std::_Vector_val<std::vector<cv::Point_<int>,std::allocator<cv::Point_<int> > >,std::allocator<std::vector<cv::Point_<int>,std::allocator<cv::Point_<int> > > > >::_Vector_val<std::vector<cv::Point_<int>,std::allocator<cv::Point_<int> > >,std::allocator<std::vector<cv::Point_<int>,std::allocator<cv::Point_<int> > > > >
PUBLIC	??0?$vector@V?$vector@V?$Point_@H@cv@@V?$allocator@V?$Point_@H@cv@@@std@@@std@@V?$allocator@V?$vector@V?$Point_@H@cv@@V?$allocator@V?$Point_@H@cv@@@std@@@std@@@2@@std@@QAE@XZ ; std::vector<std::vector<cv::Point_<int>,std::allocator<cv::Point_<int> > >,std::allocator<std::vector<cv::Point_<int>,std::allocator<cv::Point_<int> > > > >::vector<std::vector<cv::Point_<int>,std::allocator<cv::Point_<int> > >,std::allocator<std::vector<cv::Point_<int>,std::allocator<cv::Point_<int> > > > >
PUBLIC	??1?$_Vector_val@V?$vector@V?$Point_@H@cv@@V?$allocator@V?$Point_@H@cv@@@std@@@std@@V?$allocator@V?$vector@V?$Point_@H@cv@@V?$allocator@V?$Point_@H@cv@@@std@@@std@@@2@@std@@QAE@XZ ; std::_Vector_val<std::vector<cv::Point_<int>,std::allocator<cv::Point_<int> > >,std::allocator<std::vector<cv::Point_<int>,std::allocator<cv::Point_<int> > > > >::~_Vector_val<std::vector<cv::Point_<int>,std::allocator<cv::Point_<int> > >,std::allocator<std::vector<cv::Point_<int>,std::allocator<cv::Point_<int> > > > >
PUBLIC	?deallocate@?$allocator@V?$vector@V?$Point_@H@cv@@V?$allocator@V?$Point_@H@cv@@@std@@@std@@@std@@QAEXPAV?$vector@V?$Point_@H@cv@@V?$allocator@V?$Point_@H@cv@@@std@@@2@I@Z ; std::allocator<std::vector<cv::Point_<int>,std::allocator<cv::Point_<int> > > >::deallocate
PUBLIC	??$_Ptr_cat@V?$vector@V?$Point_@H@cv@@V?$allocator@V?$Point_@H@cv@@@std@@@std@@V12@@std@@YA?AU_Nonscalar_ptr_iterator_tag@0@PAV?$vector@V?$Point_@H@cv@@V?$allocator@V?$Point_@H@cv@@@std@@@0@0@Z ; std::_Ptr_cat<std::vector<cv::Point_<int>,std::allocator<cv::Point_<int> > >,std::vector<cv::Point_<int>,std::allocator<cv::Point_<int> > > >
PUBLIC	??1?$_Vector_val@V?$Point_@H@cv@@V?$allocator@V?$Point_@H@cv@@@std@@@std@@QAE@XZ ; std::_Vector_val<cv::Point_<int>,std::allocator<cv::Point_<int> > >::~_Vector_val<cv::Point_<int>,std::allocator<cv::Point_<int> > >
PUBLIC	?deallocate@?$allocator@V?$Point_@H@cv@@@std@@QAEXPAV?$Point_@H@cv@@I@Z ; std::allocator<cv::Point_<int> >::deallocate
PUBLIC	??$_Ptr_cat@V?$Point_@H@cv@@V12@@std@@YA?AU_Nonscalar_ptr_iterator_tag@0@PAV?$Point_@H@cv@@0@Z ; std::_Ptr_cat<cv::Point_<int>,cv::Point_<int> >
PUBLIC	??$_Destroy@V?$Point_@H@cv@@@std@@YAXPAV?$Point_@H@cv@@@Z ; std::_Destroy<cv::Point_<int> >
PUBLIC	?destroy@?$allocator@V?$Point_@H@cv@@@std@@QAEXPAV?$Point_@H@cv@@@Z ; std::allocator<cv::Point_<int> >::destroy
PUBLIC	??$_Dest_val@V?$allocator@V?$Point_@H@cv@@@std@@V?$Point_@H@cv@@@std@@YAXAAV?$allocator@V?$Point_@H@cv@@@0@PAV?$Point_@H@cv@@@Z ; std::_Dest_val<std::allocator<cv::Point_<int> >,cv::Point_<int> >
PUBLIC	??$_Destroy_range@V?$allocator@V?$Point_@H@cv@@@std@@@std@@YAXPAV?$Point_@H@cv@@0AAV?$allocator@V?$Point_@H@cv@@@0@U_Nonscalar_ptr_iterator_tag@0@@Z ; std::_Destroy_range<std::allocator<cv::Point_<int> > >
PUBLIC	??$_Destroy_range@V?$allocator@V?$Point_@H@cv@@@std@@@std@@YAXPAV?$Point_@H@cv@@0AAV?$allocator@V?$Point_@H@cv@@@0@@Z ; std::_Destroy_range<std::allocator<cv::Point_<int> > >
PUBLIC	?_Destroy@?$vector@V?$Point_@H@cv@@V?$allocator@V?$Point_@H@cv@@@std@@@std@@IAEXPAV?$Point_@H@cv@@0@Z ; std::vector<cv::Point_<int>,std::allocator<cv::Point_<int> > >::_Destroy
PUBLIC	?_Tidy@?$vector@V?$Point_@H@cv@@V?$allocator@V?$Point_@H@cv@@@std@@@std@@IAEXXZ ; std::vector<cv::Point_<int>,std::allocator<cv::Point_<int> > >::_Tidy
PUBLIC	??1?$vector@V?$Point_@H@cv@@V?$allocator@V?$Point_@H@cv@@@std@@@std@@QAE@XZ ; std::vector<cv::Point_<int>,std::allocator<cv::Point_<int> > >::~vector<cv::Point_<int>,std::allocator<cv::Point_<int> > >
PUBLIC	??_G?$vector@V?$Point_@H@cv@@V?$allocator@V?$Point_@H@cv@@@std@@@std@@QAEPAXI@Z ; std::vector<cv::Point_<int>,std::allocator<cv::Point_<int> > >::`scalar deleting destructor'
PUBLIC	??$_Destroy@V?$vector@V?$Point_@H@cv@@V?$allocator@V?$Point_@H@cv@@@std@@@std@@@std@@YAXPAV?$vector@V?$Point_@H@cv@@V?$allocator@V?$Point_@H@cv@@@std@@@0@@Z ; std::_Destroy<std::vector<cv::Point_<int>,std::allocator<cv::Point_<int> > > >
PUBLIC	?destroy@?$allocator@V?$vector@V?$Point_@H@cv@@V?$allocator@V?$Point_@H@cv@@@std@@@std@@@std@@QAEXPAV?$vector@V?$Point_@H@cv@@V?$allocator@V?$Point_@H@cv@@@std@@@2@@Z ; std::allocator<std::vector<cv::Point_<int>,std::allocator<cv::Point_<int> > > >::destroy
PUBLIC	??$_Dest_val@V?$allocator@V?$vector@V?$Point_@H@cv@@V?$allocator@V?$Point_@H@cv@@@std@@@std@@@std@@V?$vector@V?$Point_@H@cv@@V?$allocator@V?$Point_@H@cv@@@std@@@2@@std@@YAXAAV?$allocator@V?$vector@V?$Point_@H@cv@@V?$allocator@V?$Point_@H@cv@@@std@@@std@@@0@PAV?$vector@V?$Point_@H@cv@@V?$allocator@V?$Point_@H@cv@@@std@@@0@@Z ; std::_Dest_val<std::allocator<std::vector<cv::Point_<int>,std::allocator<cv::Point_<int> > > >,std::vector<cv::Point_<int>,std::allocator<cv::Point_<int> > > >
PUBLIC	??$_Destroy_range@V?$allocator@V?$vector@V?$Point_@H@cv@@V?$allocator@V?$Point_@H@cv@@@std@@@std@@@std@@@std@@YAXPAV?$vector@V?$Point_@H@cv@@V?$allocator@V?$Point_@H@cv@@@std@@@0@0AAV?$allocator@V?$vector@V?$Point_@H@cv@@V?$allocator@V?$Point_@H@cv@@@std@@@std@@@0@U_Nonscalar_ptr_iterator_tag@0@@Z ; std::_Destroy_range<std::allocator<std::vector<cv::Point_<int>,std::allocator<cv::Point_<int> > > > >
PUBLIC	??$_Destroy_range@V?$allocator@V?$vector@V?$Point_@H@cv@@V?$allocator@V?$Point_@H@cv@@@std@@@std@@@std@@@std@@YAXPAV?$vector@V?$Point_@H@cv@@V?$allocator@V?$Point_@H@cv@@@std@@@0@0AAV?$allocator@V?$vector@V?$Point_@H@cv@@V?$allocator@V?$Point_@H@cv@@@std@@@std@@@0@@Z ; std::_Destroy_range<std::allocator<std::vector<cv::Point_<int>,std::allocator<cv::Point_<int> > > > >
PUBLIC	?_Destroy@?$vector@V?$vector@V?$Point_@H@cv@@V?$allocator@V?$Point_@H@cv@@@std@@@std@@V?$allocator@V?$vector@V?$Point_@H@cv@@V?$allocator@V?$Point_@H@cv@@@std@@@std@@@2@@std@@IAEXPAV?$vector@V?$Point_@H@cv@@V?$allocator@V?$Point_@H@cv@@@std@@@2@0@Z ; std::vector<std::vector<cv::Point_<int>,std::allocator<cv::Point_<int> > >,std::allocator<std::vector<cv::Point_<int>,std::allocator<cv::Point_<int> > > > >::_Destroy
PUBLIC	?_Tidy@?$vector@V?$vector@V?$Point_@H@cv@@V?$allocator@V?$Point_@H@cv@@@std@@@std@@V?$allocator@V?$vector@V?$Point_@H@cv@@V?$allocator@V?$Point_@H@cv@@@std@@@std@@@2@@std@@IAEXXZ ; std::vector<std::vector<cv::Point_<int>,std::allocator<cv::Point_<int> > >,std::allocator<std::vector<cv::Point_<int>,std::allocator<cv::Point_<int> > > > >::_Tidy
PUBLIC	??1?$vector@V?$vector@V?$Point_@H@cv@@V?$allocator@V?$Point_@H@cv@@@std@@@std@@V?$allocator@V?$vector@V?$Point_@H@cv@@V?$allocator@V?$Point_@H@cv@@@std@@@std@@@2@@std@@QAE@XZ ; std::vector<std::vector<cv::Point_<int>,std::allocator<cv::Point_<int> > >,std::allocator<std::vector<cv::Point_<int>,std::allocator<cv::Point_<int> > > > >::~vector<std::vector<cv::Point_<int>,std::allocator<cv::Point_<int> > >,std::allocator<std::vector<cv::Point_<int>,std::allocator<cv::Point_<int> > > > >
PUBLIC	??A?$vector@V?$vector@V?$Point_@H@cv@@V?$allocator@V?$Point_@H@cv@@@std@@@std@@V?$allocator@V?$vector@V?$Point_@H@cv@@V?$allocator@V?$Point_@H@cv@@@std@@@std@@@2@@std@@QAEAAV?$vector@V?$Point_@H@cv@@V?$allocator@V?$Point_@H@cv@@@std@@@1@I@Z ; std::vector<std::vector<cv::Point_<int>,std::allocator<cv::Point_<int> > >,std::allocator<std::vector<cv::Point_<int>,std::allocator<cv::Point_<int> > > > >::operator[]
PUBLIC	??0?$allocator@V?$Vec@H$03@cv@@@std@@QAE@XZ	; std::allocator<cv::Vec<int,4> >::allocator<cv::Vec<int,4> >
PUBLIC	??0?$allocator@V?$Vec@H$03@cv@@@std@@QAE@ABV01@@Z ; std::allocator<cv::Vec<int,4> >::allocator<cv::Vec<int,4> >
PUBLIC	??0?$_Vector_val@V?$Vec@H$03@cv@@V?$allocator@V?$Vec@H$03@cv@@@std@@@std@@QAE@V?$allocator@V?$Vec@H$03@cv@@@1@@Z ; std::_Vector_val<cv::Vec<int,4>,std::allocator<cv::Vec<int,4> > >::_Vector_val<cv::Vec<int,4>,std::allocator<cv::Vec<int,4> > >
PUBLIC	??0?$vector@V?$Vec@H$03@cv@@V?$allocator@V?$Vec@H$03@cv@@@std@@@std@@QAE@XZ ; std::vector<cv::Vec<int,4>,std::allocator<cv::Vec<int,4> > >::vector<cv::Vec<int,4>,std::allocator<cv::Vec<int,4> > >
PUBLIC	??1?$_Vector_val@V?$Vec@H$03@cv@@V?$allocator@V?$Vec@H$03@cv@@@std@@@std@@QAE@XZ ; std::_Vector_val<cv::Vec<int,4>,std::allocator<cv::Vec<int,4> > >::~_Vector_val<cv::Vec<int,4>,std::allocator<cv::Vec<int,4> > >
PUBLIC	?deallocate@?$allocator@V?$Vec@H$03@cv@@@std@@QAEXPAV?$Vec@H$03@cv@@I@Z ; std::allocator<cv::Vec<int,4> >::deallocate
PUBLIC	??$_Ptr_cat@V?$Vec@H$03@cv@@V12@@std@@YA?AU_Nonscalar_ptr_iterator_tag@0@PAV?$Vec@H$03@cv@@0@Z ; std::_Ptr_cat<cv::Vec<int,4>,cv::Vec<int,4> >
PUBLIC	??$_Destroy@V?$Vec@H$03@cv@@@std@@YAXPAV?$Vec@H$03@cv@@@Z ; std::_Destroy<cv::Vec<int,4> >
PUBLIC	?destroy@?$allocator@V?$Vec@H$03@cv@@@std@@QAEXPAV?$Vec@H$03@cv@@@Z ; std::allocator<cv::Vec<int,4> >::destroy
PUBLIC	??$_Dest_val@V?$allocator@V?$Vec@H$03@cv@@@std@@V?$Vec@H$03@cv@@@std@@YAXAAV?$allocator@V?$Vec@H$03@cv@@@0@PAV?$Vec@H$03@cv@@@Z ; std::_Dest_val<std::allocator<cv::Vec<int,4> >,cv::Vec<int,4> >
PUBLIC	??$_Destroy_range@V?$allocator@V?$Vec@H$03@cv@@@std@@@std@@YAXPAV?$Vec@H$03@cv@@0AAV?$allocator@V?$Vec@H$03@cv@@@0@U_Nonscalar_ptr_iterator_tag@0@@Z ; std::_Destroy_range<std::allocator<cv::Vec<int,4> > >
PUBLIC	??$_Destroy_range@V?$allocator@V?$Vec@H$03@cv@@@std@@@std@@YAXPAV?$Vec@H$03@cv@@0AAV?$allocator@V?$Vec@H$03@cv@@@0@@Z ; std::_Destroy_range<std::allocator<cv::Vec<int,4> > >
PUBLIC	?_Destroy@?$vector@V?$Vec@H$03@cv@@V?$allocator@V?$Vec@H$03@cv@@@std@@@std@@IAEXPAV?$Vec@H$03@cv@@0@Z ; std::vector<cv::Vec<int,4>,std::allocator<cv::Vec<int,4> > >::_Destroy
PUBLIC	?_Tidy@?$vector@V?$Vec@H$03@cv@@V?$allocator@V?$Vec@H$03@cv@@@std@@@std@@IAEXXZ ; std::vector<cv::Vec<int,4>,std::allocator<cv::Vec<int,4> > >::_Tidy
PUBLIC	??1?$vector@V?$Vec@H$03@cv@@V?$allocator@V?$Vec@H$03@cv@@@std@@@std@@QAE@XZ ; std::vector<cv::Vec<int,4>,std::allocator<cv::Vec<int,4> > >::~vector<cv::Vec<int,4>,std::allocator<cv::Vec<int,4> > >
PUBLIC	?size@?$vector@V?$Vec@H$03@cv@@V?$allocator@V?$Vec@H$03@cv@@@std@@@std@@QBEIXZ ; std::vector<cv::Vec<int,4>,std::allocator<cv::Vec<int,4> > >::size
PUBLIC	??A?$vector@V?$Vec@H$03@cv@@V?$allocator@V?$Vec@H$03@cv@@@std@@@std@@QAEAAV?$Vec@H$03@cv@@I@Z ; std::vector<cv::Vec<int,4>,std::allocator<cv::Vec<int,4> > >::operator[]
PUBLIC	??A?$Vec@H$03@cv@@QAEAAHH@Z			; cv::Vec<int,4>::operator[]
PUBLIC	??$?0V?$Point_@H@cv@@@_InputArray@cv@@QAE@ABV?$vector@V?$vector@V?$Point_@H@cv@@V?$allocator@V?$Point_@H@cv@@@std@@@std@@V?$allocator@V?$vector@V?$Point_@H@cv@@V?$allocator@V?$Point_@H@cv@@@std@@@std@@@2@@std@@@Z ; cv::_InputArray::_InputArray<cv::Point_<int> >
PUBLIC	??$?0V?$Point_@H@cv@@@_OutputArray@cv@@QAE@AAV?$vector@V?$vector@V?$Point_@H@cv@@V?$allocator@V?$Point_@H@cv@@@std@@@std@@V?$allocator@V?$vector@V?$Point_@H@cv@@V?$allocator@V?$Point_@H@cv@@@std@@@std@@@2@@std@@@Z ; cv::_OutputArray::_OutputArray<cv::Point_<int> >
PUBLIC	??0?$Size_@H@cv@@QAE@XZ				; cv::Size_<int>::Size_<int>
PUBLIC	??$?0V?$Vec@H$03@cv@@@_InputArray@cv@@QAE@ABV?$vector@V?$Vec@H$03@cv@@V?$allocator@V?$Vec@H$03@cv@@@std@@@std@@@Z ; cv::_InputArray::_InputArray<cv::Vec<int,4> >
PUBLIC	??$?0V?$Vec@H$03@cv@@@_OutputArray@cv@@QAE@AAV?$vector@V?$Vec@H$03@cv@@V?$allocator@V?$Vec@H$03@cv@@@std@@@std@@@Z ; cv::_OutputArray::_OutputArray<cv::Vec<int,4> >
PUBLIC	??0Mat@cv@@QAE@HHHPAXI@Z			; cv::Mat::Mat
PUBLIC	?size@?$vector@V?$Point_@H@cv@@V?$allocator@V?$Point_@H@cv@@@std@@@std@@QBEIXZ ; std::vector<cv::Point_<int>,std::allocator<cv::Point_<int> > >::size
PUBLIC	?empty@?$vector@V?$Point_@H@cv@@V?$allocator@V?$Point_@H@cv@@@std@@@std@@QBE_NXZ ; std::vector<cv::Point_<int>,std::allocator<cv::Point_<int> > >::empty
PUBLIC	??A?$vector@V?$Point_@H@cv@@V?$allocator@V?$Point_@H@cv@@@std@@@std@@QBEABV?$Point_@H@cv@@I@Z ; std::vector<cv::Point_<int>,std::allocator<cv::Point_<int> > >::operator[]
PUBLIC	??$?0V?$Point_@H@cv@@@Mat@cv@@QAE@ABV?$vector@V?$Point_@H@cv@@V?$allocator@V?$Point_@H@cv@@@std@@@std@@_N@Z ; cv::Mat::Mat<cv::Point_<int> >
PUBLIC	?length@?$char_traits@D@std@@SAIPBD@Z		; std::char_traits<char>::length
PUBLIC	?move@?$char_traits@D@std@@SAPADPADPBDI@Z	; std::char_traits<char>::move
PUBLIC	?erase@?$basic_string@DU?$char_traits@D@std@@V?$allocator@D@2@@std@@QAEAAV12@II@Z ; std::basic_string<char,std::char_traits<char>,std::allocator<char> >::erase
PUBLIC	?size@?$basic_string@DU?$char_traits@D@std@@V?$allocator@D@2@@std@@QBEIXZ ; std::basic_string<char,std::char_traits<char>,std::allocator<char> >::size
PUBLIC	?_Myptr@?$basic_string@DU?$char_traits@D@std@@V?$allocator@D@2@@std@@QBEPBDXZ ; std::basic_string<char,std::char_traits<char>,std::allocator<char> >::_Myptr
PUBLIC	?_Xran@?$basic_string@DU?$char_traits@D@std@@V?$allocator@D@2@@std@@QBEXXZ ; std::basic_string<char,std::char_traits<char>,std::allocator<char> >::_Xran
PUBLIC	?assign@?$basic_string@DU?$char_traits@D@std@@V?$allocator@D@2@@std@@QAEAAV12@ABV12@II@Z ; std::basic_string<char,std::char_traits<char>,std::allocator<char> >::assign
PUBLIC	??$_Allocate@D@std@@YAPADIPAD@Z			; std::_Allocate<char>
PUBLIC	?allocate@?$allocator@D@std@@QAEPADI@Z		; std::allocator<char>::allocate
PUBLIC	?max_size@?$allocator@D@std@@QBEIXZ		; std::allocator<char>::max_size
PUBLIC	?max_size@?$basic_string@DU?$char_traits@D@std@@V?$allocator@D@2@@std@@QBEIXZ ; std::basic_string<char,std::char_traits<char>,std::allocator<char> >::max_size
PUBLIC	?_Copy@?$basic_string@DU?$char_traits@D@std@@V?$allocator@D@2@@std@@QAEXII@Z ; std::basic_string<char,std::char_traits<char>,std::allocator<char> >::_Copy
PUBLIC	?_Xlen@?$basic_string@DU?$char_traits@D@std@@V?$allocator@D@2@@std@@QBEXXZ ; std::basic_string<char,std::char_traits<char>,std::allocator<char> >::_Xlen
PUBLIC	?_Grow@?$basic_string@DU?$char_traits@D@std@@V?$allocator@D@2@@std@@QAE_NI_N@Z ; std::basic_string<char,std::char_traits<char>,std::allocator<char> >::_Grow
PUBLIC	?_Inside@?$basic_string@DU?$char_traits@D@std@@V?$allocator@D@2@@std@@QAE_NPBD@Z ; std::basic_string<char,std::char_traits<char>,std::allocator<char> >::_Inside
PUBLIC	?assign@?$basic_string@DU?$char_traits@D@std@@V?$allocator@D@2@@std@@QAEAAV12@PBDI@Z ; std::basic_string<char,std::char_traits<char>,std::allocator<char> >::assign
PUBLIC	?assign@?$basic_string@DU?$char_traits@D@std@@V?$allocator@D@2@@std@@QAEAAV12@PBD@Z ; std::basic_string<char,std::char_traits<char>,std::allocator<char> >::assign
PUBLIC	??4?$basic_string@DU?$char_traits@D@std@@V?$allocator@D@2@@std@@QAEAAV01@PBD@Z ; std::basic_string<char,std::char_traits<char>,std::allocator<char> >::operator=
PUBLIC	?release@?$Ptr@UCvHaarClassifierCascade@@@cv@@QAEXXZ ; cv::Ptr<CvHaarClassifierCascade>::release
PUBLIC	??1?$Ptr@UCvHaarClassifierCascade@@@cv@@QAE@XZ	; cv::Ptr<CvHaarClassifierCascade>::~Ptr<CvHaarClassifierCascade>
PUBLIC	?addref@?$Ptr@UCvHaarClassifierCascade@@@cv@@QAEXXZ ; cv::Ptr<CvHaarClassifierCascade>::addref
PUBLIC	??0?$Ptr@UCvHaarClassifierCascade@@@cv@@QAE@ABV01@@Z ; cv::Ptr<CvHaarClassifierCascade>::Ptr<CvHaarClassifierCascade>
PUBLIC	??1Data@CascadeClassifier@cv@@QAE@XZ		; cv::CascadeClassifier::Data::~Data
PUBLIC	??0?$Size_@H@cv@@QAE@ABV01@@Z			; cv::Size_<int>::Size_<int>
PUBLIC	??0?$allocator@H@std@@QAE@ABV01@@Z		; std::allocator<int>::allocator<int>
PUBLIC	??0?$_Vector_val@HV?$allocator@H@std@@@std@@QAE@V?$allocator@H@1@@Z ; std::_Vector_val<int,std::allocator<int> >::_Vector_val<int,std::allocator<int> >
PUBLIC	?begin@?$vector@HV?$allocator@H@std@@@std@@QBE?AV?$_Vector_const_iterator@V?$_Vector_val@HV?$allocator@H@std@@@std@@@2@XZ ; std::vector<int,std::allocator<int> >::begin
PUBLIC	??0?$_Vector_const_iterator@V?$_Vector_val@HV?$allocator@H@std@@@std@@@std@@QAE@PAHPBU_Container_base0@1@@Z ; std::_Vector_const_iterator<std::_Vector_val<int,std::allocator<int> > >::_Vector_const_iterator<std::_Vector_val<int,std::allocator<int> > >
PUBLIC	?end@?$vector@HV?$allocator@H@std@@@std@@QBE?AV?$_Vector_const_iterator@V?$_Vector_val@HV?$allocator@H@std@@@std@@@2@XZ ; std::vector<int,std::allocator<int> >::end
PUBLIC	?size@?$vector@HV?$allocator@H@std@@@std@@QBEIXZ ; std::vector<int,std::allocator<int> >::size
PUBLIC	??$_Allocate@H@std@@YAPAHIPAH@Z			; std::_Allocate<int>
PUBLIC	?allocate@?$allocator@H@std@@QAEPAHI@Z		; std::allocator<int>::allocate
PUBLIC	?max_size@?$allocator@H@std@@QBEIXZ		; std::allocator<int>::max_size
PUBLIC	?max_size@?$vector@HV?$allocator@H@std@@@std@@QBEIXZ ; std::vector<int,std::allocator<int> >::max_size
PUBLIC	?_Xlen@?$vector@HV?$allocator@H@std@@@std@@IBEXXZ ; std::vector<int,std::allocator<int> >::_Xlen
PUBLIC	?_Buy@?$vector@HV?$allocator@H@std@@@std@@IAE_NI@Z ; std::vector<int,std::allocator<int> >::_Buy
PUBLIC	??$_Ptr_cat@V?$_Vector_const_iterator@V?$_Vector_val@HV?$allocator@H@std@@@std@@@std@@PAH@std@@YA?AU_Nonscalar_ptr_iterator_tag@0@AAV?$_Vector_const_iterator@V?$_Vector_val@HV?$allocator@H@std@@@std@@@0@AAPAH@Z ; std::_Ptr_cat<std::_Vector_const_iterator<std::_Vector_val<int,std::allocator<int> > >,int *>
PUBLIC	??D?$_Vector_const_iterator@V?$_Vector_val@HV?$allocator@H@std@@@std@@@std@@QBEABHXZ ; std::_Vector_const_iterator<std::_Vector_val<int,std::allocator<int> > >::operator*
PUBLIC	??E?$_Vector_const_iterator@V?$_Vector_val@HV?$allocator@H@std@@@std@@@std@@QAEAAV01@XZ ; std::_Vector_const_iterator<std::_Vector_val<int,std::allocator<int> > >::operator++
PUBLIC	?_Compat@?$_Vector_const_iterator@V?$_Vector_val@HV?$allocator@H@std@@@std@@@std@@QBEXABV12@@Z ; std::_Vector_const_iterator<std::_Vector_val<int,std::allocator<int> > >::_Compat
PUBLIC	??8?$_Vector_const_iterator@V?$_Vector_val@HV?$allocator@H@std@@@std@@@std@@QBE_NABV01@@Z ; std::_Vector_const_iterator<std::_Vector_val<int,std::allocator<int> > >::operator==
PUBLIC	??9?$_Vector_const_iterator@V?$_Vector_val@HV?$allocator@H@std@@@std@@@std@@QBE_NABV01@@Z ; std::_Vector_const_iterator<std::_Vector_val<int,std::allocator<int> > >::operator!=
PUBLIC	??$_Construct@HABH@std@@YAXPAHABH@Z		; std::_Construct<int,int const &>
PUBLIC	?construct@?$allocator@H@std@@QAEXPAHABH@Z	; std::allocator<int>::construct
PUBLIC	??$forward@ABH@std@@YAABHABH@Z			; std::forward<int const &>
PUBLIC	??$_Cons_val@V?$allocator@H@std@@HABH@std@@YAXAAV?$allocator@H@0@PAHABH@Z ; std::_Cons_val<std::allocator<int>,int,int const &>
PUBLIC	??$_Destroy@H@std@@YAXPAH@Z			; std::_Destroy<int>
PUBLIC	?destroy@?$allocator@H@std@@QAEXPAH@Z		; std::allocator<int>::destroy
PUBLIC	??$_Dest_val@V?$allocator@H@std@@H@std@@YAXAAV?$allocator@H@0@PAH@Z ; std::_Dest_val<std::allocator<int>,int>
PUBLIC	??$_Uninit_copy@V?$_Vector_const_iterator@V?$_Vector_val@HV?$allocator@H@std@@@std@@@std@@PAHV?$allocator@H@2@@std@@YAPAHV?$_Vector_const_iterator@V?$_Vector_val@HV?$allocator@H@std@@@std@@@0@0PAHAAV?$allocator@H@0@U_Nonscalar_ptr_iterator_tag@0@@Z ; std::_Uninit_copy<std::_Vector_const_iterator<std::_Vector_val<int,std::allocator<int> > >,int *,std::allocator<int> >
PUBLIC	??$_Uninitialized_copy@V?$_Vector_const_iterator@V?$_Vector_val@HV?$allocator@H@std@@@std@@@std@@PAHV?$allocator@H@2@@std@@YAPAHV?$_Vector_const_iterator@V?$_Vector_val@HV?$allocator@H@std@@@std@@@0@0PAHAAV?$allocator@H@0@@Z ; std::_Uninitialized_copy<std::_Vector_const_iterator<std::_Vector_val<int,std::allocator<int> > >,int *,std::allocator<int> >
PUBLIC	??$_Ucopy@V?$_Vector_const_iterator@V?$_Vector_val@HV?$allocator@H@std@@@std@@@std@@@?$vector@HV?$allocator@H@std@@@std@@IAEPAHV?$_Vector_const_iterator@V?$_Vector_val@HV?$allocator@H@std@@@std@@@1@0PAH@Z ; std::vector<int,std::allocator<int> >::_Ucopy<std::_Vector_const_iterator<std::_Vector_val<int,std::allocator<int> > > >
PUBLIC	??0?$vector@HV?$allocator@H@std@@@std@@QAE@ABV01@@Z ; std::vector<int,std::allocator<int> >::vector<int,std::allocator<int> >
PUBLIC	??1?$_Vector_val@HV?$allocator@H@std@@@std@@QAE@XZ ; std::_Vector_val<int,std::allocator<int> >::~_Vector_val<int,std::allocator<int> >
PUBLIC	?deallocate@?$allocator@H@std@@QAEXPAHI@Z	; std::allocator<int>::deallocate
PUBLIC	??$_Ptr_cat@HH@std@@YA?AU_Scalar_ptr_iterator_tag@0@PAH0@Z ; std::_Ptr_cat<int,int>
PUBLIC	??$_Destroy_range@V?$allocator@H@std@@@std@@YAXPAH0AAV?$allocator@H@0@U_Scalar_ptr_iterator_tag@0@@Z ; std::_Destroy_range<std::allocator<int> >
PUBLIC	??$_Destroy_range@V?$allocator@H@std@@@std@@YAXPAH0AAV?$allocator@H@0@@Z ; std::_Destroy_range<std::allocator<int> >
PUBLIC	?_Destroy@?$vector@HV?$allocator@H@std@@@std@@IAEXPAH0@Z ; std::vector<int,std::allocator<int> >::_Destroy
PUBLIC	?_Tidy@?$vector@HV?$allocator@H@std@@@std@@IAEXXZ ; std::vector<int,std::allocator<int> >::_Tidy
PUBLIC	??1?$vector@HV?$allocator@H@std@@@std@@QAE@XZ	; std::vector<int,std::allocator<int> >::~vector<int,std::allocator<int> >
PUBLIC	??0?$allocator@UStage@Data@CascadeClassifier@cv@@@std@@QAE@ABV01@@Z ; std::allocator<cv::CascadeClassifier::Data::Stage>::allocator<cv::CascadeClassifier::Data::Stage>
PUBLIC	??0?$_Vector_val@UStage@Data@CascadeClassifier@cv@@V?$allocator@UStage@Data@CascadeClassifier@cv@@@std@@@std@@QAE@V?$allocator@UStage@Data@CascadeClassifier@cv@@@1@@Z ; std::_Vector_val<cv::CascadeClassifier::Data::Stage,std::allocator<cv::CascadeClassifier::Data::Stage> >::_Vector_val<cv::CascadeClassifier::Data::Stage,std::allocator<cv::CascadeClassifier::Data::Stage> >
PUBLIC	?begin@?$vector@UStage@Data@CascadeClassifier@cv@@V?$allocator@UStage@Data@CascadeClassifier@cv@@@std@@@std@@QBE?AV?$_Vector_const_iterator@V?$_Vector_val@UStage@Data@CascadeClassifier@cv@@V?$allocator@UStage@Data@CascadeClassifier@cv@@@std@@@std@@@2@XZ ; std::vector<cv::CascadeClassifier::Data::Stage,std::allocator<cv::CascadeClassifier::Data::Stage> >::begin
PUBLIC	??0?$_Vector_const_iterator@V?$_Vector_val@UStage@Data@CascadeClassifier@cv@@V?$allocator@UStage@Data@CascadeClassifier@cv@@@std@@@std@@@std@@QAE@PAUStage@Data@CascadeClassifier@cv@@PBU_Container_base0@1@@Z ; std::_Vector_const_iterator<std::_Vector_val<cv::CascadeClassifier::Data::Stage,std::allocator<cv::CascadeClassifier::Data::Stage> > >::_Vector_const_iterator<std::_Vector_val<cv::CascadeClassifier::Data::Stage,std::allocator<cv::CascadeClassifier::Data::Stage> > >
PUBLIC	?end@?$vector@UStage@Data@CascadeClassifier@cv@@V?$allocator@UStage@Data@CascadeClassifier@cv@@@std@@@std@@QBE?AV?$_Vector_const_iterator@V?$_Vector_val@UStage@Data@CascadeClassifier@cv@@V?$allocator@UStage@Data@CascadeClassifier@cv@@@std@@@std@@@2@XZ ; std::vector<cv::CascadeClassifier::Data::Stage,std::allocator<cv::CascadeClassifier::Data::Stage> >::end
PUBLIC	?size@?$vector@UStage@Data@CascadeClassifier@cv@@V?$allocator@UStage@Data@CascadeClassifier@cv@@@std@@@std@@QBEIXZ ; std::vector<cv::CascadeClassifier::Data::Stage,std::allocator<cv::CascadeClassifier::Data::Stage> >::size
PUBLIC	??$_Allocate@UStage@Data@CascadeClassifier@cv@@@std@@YAPAUStage@Data@CascadeClassifier@cv@@IPAU1234@@Z ; std::_Allocate<cv::CascadeClassifier::Data::Stage>
PUBLIC	?allocate@?$allocator@UStage@Data@CascadeClassifier@cv@@@std@@QAEPAUStage@Data@CascadeClassifier@cv@@I@Z ; std::allocator<cv::CascadeClassifier::Data::Stage>::allocate
PUBLIC	?max_size@?$allocator@UStage@Data@CascadeClassifier@cv@@@std@@QBEIXZ ; std::allocator<cv::CascadeClassifier::Data::Stage>::max_size
PUBLIC	?max_size@?$vector@UStage@Data@CascadeClassifier@cv@@V?$allocator@UStage@Data@CascadeClassifier@cv@@@std@@@std@@QBEIXZ ; std::vector<cv::CascadeClassifier::Data::Stage,std::allocator<cv::CascadeClassifier::Data::Stage> >::max_size
PUBLIC	?_Xlen@?$vector@UStage@Data@CascadeClassifier@cv@@V?$allocator@UStage@Data@CascadeClassifier@cv@@@std@@@std@@IBEXXZ ; std::vector<cv::CascadeClassifier::Data::Stage,std::allocator<cv::CascadeClassifier::Data::Stage> >::_Xlen
PUBLIC	?_Buy@?$vector@UStage@Data@CascadeClassifier@cv@@V?$allocator@UStage@Data@CascadeClassifier@cv@@@std@@@std@@IAE_NI@Z ; std::vector<cv::CascadeClassifier::Data::Stage,std::allocator<cv::CascadeClassifier::Data::Stage> >::_Buy
PUBLIC	??$_Ptr_cat@V?$_Vector_const_iterator@V?$_Vector_val@UStage@Data@CascadeClassifier@cv@@V?$allocator@UStage@Data@CascadeClassifier@cv@@@std@@@std@@@std@@PAUStage@Data@CascadeClassifier@cv@@@std@@YA?AU_Nonscalar_ptr_iterator_tag@0@AAV?$_Vector_const_iterator@V?$_Vector_val@UStage@Data@CascadeClassifier@cv@@V?$allocator@UStage@Data@CascadeClassifier@cv@@@std@@@std@@@0@AAPAUStage@Data@CascadeClassifier@cv@@@Z ; std::_Ptr_cat<std::_Vector_const_iterator<std::_Vector_val<cv::CascadeClassifier::Data::Stage,std::allocator<cv::CascadeClassifier::Data::Stage> > >,cv::CascadeClassifier::Data::Stage *>
PUBLIC	??D?$_Vector_const_iterator@V?$_Vector_val@UStage@Data@CascadeClassifier@cv@@V?$allocator@UStage@Data@CascadeClassifier@cv@@@std@@@std@@@std@@QBEABUStage@Data@CascadeClassifier@cv@@XZ ; std::_Vector_const_iterator<std::_Vector_val<cv::CascadeClassifier::Data::Stage,std::allocator<cv::CascadeClassifier::Data::Stage> > >::operator*
PUBLIC	??E?$_Vector_const_iterator@V?$_Vector_val@UStage@Data@CascadeClassifier@cv@@V?$allocator@UStage@Data@CascadeClassifier@cv@@@std@@@std@@@std@@QAEAAV01@XZ ; std::_Vector_const_iterator<std::_Vector_val<cv::CascadeClassifier::Data::Stage,std::allocator<cv::CascadeClassifier::Data::Stage> > >::operator++
PUBLIC	?_Compat@?$_Vector_const_iterator@V?$_Vector_val@UStage@Data@CascadeClassifier@cv@@V?$allocator@UStage@Data@CascadeClassifier@cv@@@std@@@std@@@std@@QBEXABV12@@Z ; std::_Vector_const_iterator<std::_Vector_val<cv::CascadeClassifier::Data::Stage,std::allocator<cv::CascadeClassifier::Data::Stage> > >::_Compat
PUBLIC	??8?$_Vector_const_iterator@V?$_Vector_val@UStage@Data@CascadeClassifier@cv@@V?$allocator@UStage@Data@CascadeClassifier@cv@@@std@@@std@@@std@@QBE_NABV01@@Z ; std::_Vector_const_iterator<std::_Vector_val<cv::CascadeClassifier::Data::Stage,std::allocator<cv::CascadeClassifier::Data::Stage> > >::operator==
PUBLIC	??9?$_Vector_const_iterator@V?$_Vector_val@UStage@Data@CascadeClassifier@cv@@V?$allocator@UStage@Data@CascadeClassifier@cv@@@std@@@std@@@std@@QBE_NABV01@@Z ; std::_Vector_const_iterator<std::_Vector_val<cv::CascadeClassifier::Data::Stage,std::allocator<cv::CascadeClassifier::Data::Stage> > >::operator!=
PUBLIC	??$_Construct@UStage@Data@CascadeClassifier@cv@@ABU1234@@std@@YAXPAUStage@Data@CascadeClassifier@cv@@ABU1234@@Z ; std::_Construct<cv::CascadeClassifier::Data::Stage,cv::CascadeClassifier::Data::Stage const &>
PUBLIC	?construct@?$allocator@UStage@Data@CascadeClassifier@cv@@@std@@QAEXPAUStage@Data@CascadeClassifier@cv@@ABU3456@@Z ; std::allocator<cv::CascadeClassifier::Data::Stage>::construct
PUBLIC	??$forward@ABUStage@Data@CascadeClassifier@cv@@@std@@YAABUStage@Data@CascadeClassifier@cv@@ABU1234@@Z ; std::forward<cv::CascadeClassifier::Data::Stage const &>
PUBLIC	??$_Cons_val@V?$allocator@UStage@Data@CascadeClassifier@cv@@@std@@UStage@Data@CascadeClassifier@cv@@ABU3456@@std@@YAXAAV?$allocator@UStage@Data@CascadeClassifier@cv@@@0@PAUStage@Data@CascadeClassifier@cv@@ABU2345@@Z ; std::_Cons_val<std::allocator<cv::CascadeClassifier::Data::Stage>,cv::CascadeClassifier::Data::Stage,cv::CascadeClassifier::Data::Stage const &>
PUBLIC	??$_Uninit_copy@V?$_Vector_const_iterator@V?$_Vector_val@UStage@Data@CascadeClassifier@cv@@V?$allocator@UStage@Data@CascadeClassifier@cv@@@std@@@std@@@std@@PAUStage@Data@CascadeClassifier@cv@@V?$allocator@UStage@Data@CascadeClassifier@cv@@@2@@std@@YAPAUStage@Data@CascadeClassifier@cv@@V?$_Vector_const_iterator@V?$_Vector_val@UStage@Data@CascadeClassifier@cv@@V?$allocator@UStage@Data@CascadeClassifier@cv@@@std@@@std@@@0@0PAU1234@AAV?$allocator@UStage@Data@CascadeClassifier@cv@@@0@U_Nonscalar_ptr_iterator_tag@0@@Z ; std::_Uninit_copy<std::_Vector_const_iterator<std::_Vector_val<cv::CascadeClassifier::Data::Stage,std::allocator<cv::CascadeClassifier::Data::Stage> > >,cv::CascadeClassifier::Data::Stage *,std::allocator<cv::CascadeClassifier::Data::Stage> >
PUBLIC	??$_Uninitialized_copy@V?$_Vector_const_iterator@V?$_Vector_val@UStage@Data@CascadeClassifier@cv@@V?$allocator@UStage@Data@CascadeClassifier@cv@@@std@@@std@@@std@@PAUStage@Data@CascadeClassifier@cv@@V?$allocator@UStage@Data@CascadeClassifier@cv@@@2@@std@@YAPAUStage@Data@CascadeClassifier@cv@@V?$_Vector_const_iterator@V?$_Vector_val@UStage@Data@CascadeClassifier@cv@@V?$allocator@UStage@Data@CascadeClassifier@cv@@@std@@@std@@@0@0PAU1234@AAV?$allocator@UStage@Data@CascadeClassifier@cv@@@0@@Z ; std::_Uninitialized_copy<std::_Vector_const_iterator<std::_Vector_val<cv::CascadeClassifier::Data::Stage,std::allocator<cv::CascadeClassifier::Data::Stage> > >,cv::CascadeClassifier::Data::Stage *,std::allocator<cv::CascadeClassifier::Data::Stage> >
PUBLIC	??$_Ucopy@V?$_Vector_const_iterator@V?$_Vector_val@UStage@Data@CascadeClassifier@cv@@V?$allocator@UStage@Data@CascadeClassifier@cv@@@std@@@std@@@std@@@?$vector@UStage@Data@CascadeClassifier@cv@@V?$allocator@UStage@Data@CascadeClassifier@cv@@@std@@@std@@IAEPAUStage@Data@CascadeClassifier@cv@@V?$_Vector_const_iterator@V?$_Vector_val@UStage@Data@CascadeClassifier@cv@@V?$allocator@UStage@Data@CascadeClassifier@cv@@@std@@@std@@@1@0PAU2345@@Z ; std::vector<cv::CascadeClassifier::Data::Stage,std::allocator<cv::CascadeClassifier::Data::Stage> >::_Ucopy<std::_Vector_const_iterator<std::_Vector_val<cv::CascadeClassifier::Data::Stage,std::allocator<cv::CascadeClassifier::Data::Stage> > > >
PUBLIC	??0?$vector@UStage@Data@CascadeClassifier@cv@@V?$allocator@UStage@Data@CascadeClassifier@cv@@@std@@@std@@QAE@ABV01@@Z ; std::vector<cv::CascadeClassifier::Data::Stage,std::allocator<cv::CascadeClassifier::Data::Stage> >::vector<cv::CascadeClassifier::Data::Stage,std::allocator<cv::CascadeClassifier::Data::Stage> >
PUBLIC	??1?$_Vector_val@UStage@Data@CascadeClassifier@cv@@V?$allocator@UStage@Data@CascadeClassifier@cv@@@std@@@std@@QAE@XZ ; std::_Vector_val<cv::CascadeClassifier::Data::Stage,std::allocator<cv::CascadeClassifier::Data::Stage> >::~_Vector_val<cv::CascadeClassifier::Data::Stage,std::allocator<cv::CascadeClassifier::Data::Stage> >
PUBLIC	?deallocate@?$allocator@UStage@Data@CascadeClassifier@cv@@@std@@QAEXPAUStage@Data@CascadeClassifier@cv@@I@Z ; std::allocator<cv::CascadeClassifier::Data::Stage>::deallocate
PUBLIC	??$_Ptr_cat@UStage@Data@CascadeClassifier@cv@@U1234@@std@@YA?AU_Nonscalar_ptr_iterator_tag@0@PAUStage@Data@CascadeClassifier@cv@@0@Z ; std::_Ptr_cat<cv::CascadeClassifier::Data::Stage,cv::CascadeClassifier::Data::Stage>
PUBLIC	??$_Destroy@UStage@Data@CascadeClassifier@cv@@@std@@YAXPAUStage@Data@CascadeClassifier@cv@@@Z ; std::_Destroy<cv::CascadeClassifier::Data::Stage>
PUBLIC	?destroy@?$allocator@UStage@Data@CascadeClassifier@cv@@@std@@QAEXPAUStage@Data@CascadeClassifier@cv@@@Z ; std::allocator<cv::CascadeClassifier::Data::Stage>::destroy
PUBLIC	??$_Dest_val@V?$allocator@UStage@Data@CascadeClassifier@cv@@@std@@UStage@Data@CascadeClassifier@cv@@@std@@YAXAAV?$allocator@UStage@Data@CascadeClassifier@cv@@@0@PAUStage@Data@CascadeClassifier@cv@@@Z ; std::_Dest_val<std::allocator<cv::CascadeClassifier::Data::Stage>,cv::CascadeClassifier::Data::Stage>
PUBLIC	??$_Destroy_range@V?$allocator@UStage@Data@CascadeClassifier@cv@@@std@@@std@@YAXPAUStage@Data@CascadeClassifier@cv@@0AAV?$allocator@UStage@Data@CascadeClassifier@cv@@@0@U_Nonscalar_ptr_iterator_tag@0@@Z ; std::_Destroy_range<std::allocator<cv::CascadeClassifier::Data::Stage> >
PUBLIC	??$_Destroy_range@V?$allocator@UStage@Data@CascadeClassifier@cv@@@std@@@std@@YAXPAUStage@Data@CascadeClassifier@cv@@0AAV?$allocator@UStage@Data@CascadeClassifier@cv@@@0@@Z ; std::_Destroy_range<std::allocator<cv::CascadeClassifier::Data::Stage> >
PUBLIC	?_Destroy@?$vector@UStage@Data@CascadeClassifier@cv@@V?$allocator@UStage@Data@CascadeClassifier@cv@@@std@@@std@@IAEXPAUStage@Data@CascadeClassifier@cv@@0@Z ; std::vector<cv::CascadeClassifier::Data::Stage,std::allocator<cv::CascadeClassifier::Data::Stage> >::_Destroy
PUBLIC	?_Tidy@?$vector@UStage@Data@CascadeClassifier@cv@@V?$allocator@UStage@Data@CascadeClassifier@cv@@@std@@@std@@IAEXXZ ; std::vector<cv::CascadeClassifier::Data::Stage,std::allocator<cv::CascadeClassifier::Data::Stage> >::_Tidy
PUBLIC	??1?$vector@UStage@Data@CascadeClassifier@cv@@V?$allocator@UStage@Data@CascadeClassifier@cv@@@std@@@std@@QAE@XZ ; std::vector<cv::CascadeClassifier::Data::Stage,std::allocator<cv::CascadeClassifier::Data::Stage> >::~vector<cv::CascadeClassifier::Data::Stage,std::allocator<cv::CascadeClassifier::Data::Stage> >
PUBLIC	??0?$allocator@UDTree@Data@CascadeClassifier@cv@@@std@@QAE@ABV01@@Z ; std::allocator<cv::CascadeClassifier::Data::DTree>::allocator<cv::CascadeClassifier::Data::DTree>
PUBLIC	??0?$_Vector_val@UDTree@Data@CascadeClassifier@cv@@V?$allocator@UDTree@Data@CascadeClassifier@cv@@@std@@@std@@QAE@V?$allocator@UDTree@Data@CascadeClassifier@cv@@@1@@Z ; std::_Vector_val<cv::CascadeClassifier::Data::DTree,std::allocator<cv::CascadeClassifier::Data::DTree> >::_Vector_val<cv::CascadeClassifier::Data::DTree,std::allocator<cv::CascadeClassifier::Data::DTree> >
PUBLIC	?begin@?$vector@UDTree@Data@CascadeClassifier@cv@@V?$allocator@UDTree@Data@CascadeClassifier@cv@@@std@@@std@@QBE?AV?$_Vector_const_iterator@V?$_Vector_val@UDTree@Data@CascadeClassifier@cv@@V?$allocator@UDTree@Data@CascadeClassifier@cv@@@std@@@std@@@2@XZ ; std::vector<cv::CascadeClassifier::Data::DTree,std::allocator<cv::CascadeClassifier::Data::DTree> >::begin
PUBLIC	??0?$_Vector_const_iterator@V?$_Vector_val@UDTree@Data@CascadeClassifier@cv@@V?$allocator@UDTree@Data@CascadeClassifier@cv@@@std@@@std@@@std@@QAE@PAUDTree@Data@CascadeClassifier@cv@@PBU_Container_base0@1@@Z ; std::_Vector_const_iterator<std::_Vector_val<cv::CascadeClassifier::Data::DTree,std::allocator<cv::CascadeClassifier::Data::DTree> > >::_Vector_const_iterator<std::_Vector_val<cv::CascadeClassifier::Data::DTree,std::allocator<cv::CascadeClassifier::Data::DTree> > >
PUBLIC	?end@?$vector@UDTree@Data@CascadeClassifier@cv@@V?$allocator@UDTree@Data@CascadeClassifier@cv@@@std@@@std@@QBE?AV?$_Vector_const_iterator@V?$_Vector_val@UDTree@Data@CascadeClassifier@cv@@V?$allocator@UDTree@Data@CascadeClassifier@cv@@@std@@@std@@@2@XZ ; std::vector<cv::CascadeClassifier::Data::DTree,std::allocator<cv::CascadeClassifier::Data::DTree> >::end
PUBLIC	?size@?$vector@UDTree@Data@CascadeClassifier@cv@@V?$allocator@UDTree@Data@CascadeClassifier@cv@@@std@@@std@@QBEIXZ ; std::vector<cv::CascadeClassifier::Data::DTree,std::allocator<cv::CascadeClassifier::Data::DTree> >::size
PUBLIC	??$_Allocate@UDTree@Data@CascadeClassifier@cv@@@std@@YAPAUDTree@Data@CascadeClassifier@cv@@IPAU1234@@Z ; std::_Allocate<cv::CascadeClassifier::Data::DTree>
PUBLIC	?allocate@?$allocator@UDTree@Data@CascadeClassifier@cv@@@std@@QAEPAUDTree@Data@CascadeClassifier@cv@@I@Z ; std::allocator<cv::CascadeClassifier::Data::DTree>::allocate
PUBLIC	?max_size@?$allocator@UDTree@Data@CascadeClassifier@cv@@@std@@QBEIXZ ; std::allocator<cv::CascadeClassifier::Data::DTree>::max_size
PUBLIC	?max_size@?$vector@UDTree@Data@CascadeClassifier@cv@@V?$allocator@UDTree@Data@CascadeClassifier@cv@@@std@@@std@@QBEIXZ ; std::vector<cv::CascadeClassifier::Data::DTree,std::allocator<cv::CascadeClassifier::Data::DTree> >::max_size
PUBLIC	?_Xlen@?$vector@UDTree@Data@CascadeClassifier@cv@@V?$allocator@UDTree@Data@CascadeClassifier@cv@@@std@@@std@@IBEXXZ ; std::vector<cv::CascadeClassifier::Data::DTree,std::allocator<cv::CascadeClassifier::Data::DTree> >::_Xlen
PUBLIC	?_Buy@?$vector@UDTree@Data@CascadeClassifier@cv@@V?$allocator@UDTree@Data@CascadeClassifier@cv@@@std@@@std@@IAE_NI@Z ; std::vector<cv::CascadeClassifier::Data::DTree,std::allocator<cv::CascadeClassifier::Data::DTree> >::_Buy
PUBLIC	??$_Ptr_cat@V?$_Vector_const_iterator@V?$_Vector_val@UDTree@Data@CascadeClassifier@cv@@V?$allocator@UDTree@Data@CascadeClassifier@cv@@@std@@@std@@@std@@PAUDTree@Data@CascadeClassifier@cv@@@std@@YA?AU_Nonscalar_ptr_iterator_tag@0@AAV?$_Vector_const_iterator@V?$_Vector_val@UDTree@Data@CascadeClassifier@cv@@V?$allocator@UDTree@Data@CascadeClassifier@cv@@@std@@@std@@@0@AAPAUDTree@Data@CascadeClassifier@cv@@@Z ; std::_Ptr_cat<std::_Vector_const_iterator<std::_Vector_val<cv::CascadeClassifier::Data::DTree,std::allocator<cv::CascadeClassifier::Data::DTree> > >,cv::CascadeClassifier::Data::DTree *>
PUBLIC	??D?$_Vector_const_iterator@V?$_Vector_val@UDTree@Data@CascadeClassifier@cv@@V?$allocator@UDTree@Data@CascadeClassifier@cv@@@std@@@std@@@std@@QBEABUDTree@Data@CascadeClassifier@cv@@XZ ; std::_Vector_const_iterator<std::_Vector_val<cv::CascadeClassifier::Data::DTree,std::allocator<cv::CascadeClassifier::Data::DTree> > >::operator*
PUBLIC	??E?$_Vector_const_iterator@V?$_Vector_val@UDTree@Data@CascadeClassifier@cv@@V?$allocator@UDTree@Data@CascadeClassifier@cv@@@std@@@std@@@std@@QAEAAV01@XZ ; std::_Vector_const_iterator<std::_Vector_val<cv::CascadeClassifier::Data::DTree,std::allocator<cv::CascadeClassifier::Data::DTree> > >::operator++
PUBLIC	?_Compat@?$_Vector_const_iterator@V?$_Vector_val@UDTree@Data@CascadeClassifier@cv@@V?$allocator@UDTree@Data@CascadeClassifier@cv@@@std@@@std@@@std@@QBEXABV12@@Z ; std::_Vector_const_iterator<std::_Vector_val<cv::CascadeClassifier::Data::DTree,std::allocator<cv::CascadeClassifier::Data::DTree> > >::_Compat
PUBLIC	??8?$_Vector_const_iterator@V?$_Vector_val@UDTree@Data@CascadeClassifier@cv@@V?$allocator@UDTree@Data@CascadeClassifier@cv@@@std@@@std@@@std@@QBE_NABV01@@Z ; std::_Vector_const_iterator<std::_Vector_val<cv::CascadeClassifier::Data::DTree,std::allocator<cv::CascadeClassifier::Data::DTree> > >::operator==
PUBLIC	??9?$_Vector_const_iterator@V?$_Vector_val@UDTree@Data@CascadeClassifier@cv@@V?$allocator@UDTree@Data@CascadeClassifier@cv@@@std@@@std@@@std@@QBE_NABV01@@Z ; std::_Vector_const_iterator<std::_Vector_val<cv::CascadeClassifier::Data::DTree,std::allocator<cv::CascadeClassifier::Data::DTree> > >::operator!=
PUBLIC	??$_Construct@UDTree@Data@CascadeClassifier@cv@@ABU1234@@std@@YAXPAUDTree@Data@CascadeClassifier@cv@@ABU1234@@Z ; std::_Construct<cv::CascadeClassifier::Data::DTree,cv::CascadeClassifier::Data::DTree const &>
PUBLIC	?construct@?$allocator@UDTree@Data@CascadeClassifier@cv@@@std@@QAEXPAUDTree@Data@CascadeClassifier@cv@@ABU3456@@Z ; std::allocator<cv::CascadeClassifier::Data::DTree>::construct
PUBLIC	??$forward@ABUDTree@Data@CascadeClassifier@cv@@@std@@YAABUDTree@Data@CascadeClassifier@cv@@ABU1234@@Z ; std::forward<cv::CascadeClassifier::Data::DTree const &>
PUBLIC	??$_Cons_val@V?$allocator@UDTree@Data@CascadeClassifier@cv@@@std@@UDTree@Data@CascadeClassifier@cv@@ABU3456@@std@@YAXAAV?$allocator@UDTree@Data@CascadeClassifier@cv@@@0@PAUDTree@Data@CascadeClassifier@cv@@ABU2345@@Z ; std::_Cons_val<std::allocator<cv::CascadeClassifier::Data::DTree>,cv::CascadeClassifier::Data::DTree,cv::CascadeClassifier::Data::DTree const &>
PUBLIC	??$_Uninit_copy@V?$_Vector_const_iterator@V?$_Vector_val@UDTree@Data@CascadeClassifier@cv@@V?$allocator@UDTree@Data@CascadeClassifier@cv@@@std@@@std@@@std@@PAUDTree@Data@CascadeClassifier@cv@@V?$allocator@UDTree@Data@CascadeClassifier@cv@@@2@@std@@YAPAUDTree@Data@CascadeClassifier@cv@@V?$_Vector_const_iterator@V?$_Vector_val@UDTree@Data@CascadeClassifier@cv@@V?$allocator@UDTree@Data@CascadeClassifier@cv@@@std@@@std@@@0@0PAU1234@AAV?$allocator@UDTree@Data@CascadeClassifier@cv@@@0@U_Nonscalar_ptr_iterator_tag@0@@Z ; std::_Uninit_copy<std::_Vector_const_iterator<std::_Vector_val<cv::CascadeClassifier::Data::DTree,std::allocator<cv::CascadeClassifier::Data::DTree> > >,cv::CascadeClassifier::Data::DTree *,std::allocator<cv::CascadeClassifier::Data::DTree> >
PUBLIC	??$_Uninitialized_copy@V?$_Vector_const_iterator@V?$_Vector_val@UDTree@Data@CascadeClassifier@cv@@V?$allocator@UDTree@Data@CascadeClassifier@cv@@@std@@@std@@@std@@PAUDTree@Data@CascadeClassifier@cv@@V?$allocator@UDTree@Data@CascadeClassifier@cv@@@2@@std@@YAPAUDTree@Data@CascadeClassifier@cv@@V?$_Vector_const_iterator@V?$_Vector_val@UDTree@Data@CascadeClassifier@cv@@V?$allocator@UDTree@Data@CascadeClassifier@cv@@@std@@@std@@@0@0PAU1234@AAV?$allocator@UDTree@Data@CascadeClassifier@cv@@@0@@Z ; std::_Uninitialized_copy<std::_Vector_const_iterator<std::_Vector_val<cv::CascadeClassifier::Data::DTree,std::allocator<cv::CascadeClassifier::Data::DTree> > >,cv::CascadeClassifier::Data::DTree *,std::allocator<cv::CascadeClassifier::Data::DTree> >
PUBLIC	??$_Ucopy@V?$_Vector_const_iterator@V?$_Vector_val@UDTree@Data@CascadeClassifier@cv@@V?$allocator@UDTree@Data@CascadeClassifier@cv@@@std@@@std@@@std@@@?$vector@UDTree@Data@CascadeClassifier@cv@@V?$allocator@UDTree@Data@CascadeClassifier@cv@@@std@@@std@@IAEPAUDTree@Data@CascadeClassifier@cv@@V?$_Vector_const_iterator@V?$_Vector_val@UDTree@Data@CascadeClassifier@cv@@V?$allocator@UDTree@Data@CascadeClassifier@cv@@@std@@@std@@@1@0PAU2345@@Z ; std::vector<cv::CascadeClassifier::Data::DTree,std::allocator<cv::CascadeClassifier::Data::DTree> >::_Ucopy<std::_Vector_const_iterator<std::_Vector_val<cv::CascadeClassifier::Data::DTree,std::allocator<cv::CascadeClassifier::Data::DTree> > > >
PUBLIC	??0?$vector@UDTree@Data@CascadeClassifier@cv@@V?$allocator@UDTree@Data@CascadeClassifier@cv@@@std@@@std@@QAE@ABV01@@Z ; std::vector<cv::CascadeClassifier::Data::DTree,std::allocator<cv::CascadeClassifier::Data::DTree> >::vector<cv::CascadeClassifier::Data::DTree,std::allocator<cv::CascadeClassifier::Data::DTree> >
PUBLIC	??1?$_Vector_val@UDTree@Data@CascadeClassifier@cv@@V?$allocator@UDTree@Data@CascadeClassifier@cv@@@std@@@std@@QAE@XZ ; std::_Vector_val<cv::CascadeClassifier::Data::DTree,std::allocator<cv::CascadeClassifier::Data::DTree> >::~_Vector_val<cv::CascadeClassifier::Data::DTree,std::allocator<cv::CascadeClassifier::Data::DTree> >
PUBLIC	?deallocate@?$allocator@UDTree@Data@CascadeClassifier@cv@@@std@@QAEXPAUDTree@Data@CascadeClassifier@cv@@I@Z ; std::allocator<cv::CascadeClassifier::Data::DTree>::deallocate
PUBLIC	??$_Ptr_cat@UDTree@Data@CascadeClassifier@cv@@U1234@@std@@YA?AU_Nonscalar_ptr_iterator_tag@0@PAUDTree@Data@CascadeClassifier@cv@@0@Z ; std::_Ptr_cat<cv::CascadeClassifier::Data::DTree,cv::CascadeClassifier::Data::DTree>
PUBLIC	??$_Destroy@UDTree@Data@CascadeClassifier@cv@@@std@@YAXPAUDTree@Data@CascadeClassifier@cv@@@Z ; std::_Destroy<cv::CascadeClassifier::Data::DTree>
PUBLIC	?destroy@?$allocator@UDTree@Data@CascadeClassifier@cv@@@std@@QAEXPAUDTree@Data@CascadeClassifier@cv@@@Z ; std::allocator<cv::CascadeClassifier::Data::DTree>::destroy
PUBLIC	??$_Dest_val@V?$allocator@UDTree@Data@CascadeClassifier@cv@@@std@@UDTree@Data@CascadeClassifier@cv@@@std@@YAXAAV?$allocator@UDTree@Data@CascadeClassifier@cv@@@0@PAUDTree@Data@CascadeClassifier@cv@@@Z ; std::_Dest_val<std::allocator<cv::CascadeClassifier::Data::DTree>,cv::CascadeClassifier::Data::DTree>
PUBLIC	??$_Destroy_range@V?$allocator@UDTree@Data@CascadeClassifier@cv@@@std@@@std@@YAXPAUDTree@Data@CascadeClassifier@cv@@0AAV?$allocator@UDTree@Data@CascadeClassifier@cv@@@0@U_Nonscalar_ptr_iterator_tag@0@@Z ; std::_Destroy_range<std::allocator<cv::CascadeClassifier::Data::DTree> >
PUBLIC	??$_Destroy_range@V?$allocator@UDTree@Data@CascadeClassifier@cv@@@std@@@std@@YAXPAUDTree@Data@CascadeClassifier@cv@@0AAV?$allocator@UDTree@Data@CascadeClassifier@cv@@@0@@Z ; std::_Destroy_range<std::allocator<cv::CascadeClassifier::Data::DTree> >
PUBLIC	?_Destroy@?$vector@UDTree@Data@CascadeClassifier@cv@@V?$allocator@UDTree@Data@CascadeClassifier@cv@@@std@@@std@@IAEXPAUDTree@Data@CascadeClassifier@cv@@0@Z ; std::vector<cv::CascadeClassifier::Data::DTree,std::allocator<cv::CascadeClassifier::Data::DTree> >::_Destroy
PUBLIC	?_Tidy@?$vector@UDTree@Data@CascadeClassifier@cv@@V?$allocator@UDTree@Data@CascadeClassifier@cv@@@std@@@std@@IAEXXZ ; std::vector<cv::CascadeClassifier::Data::DTree,std::allocator<cv::CascadeClassifier::Data::DTree> >::_Tidy
PUBLIC	??1?$vector@UDTree@Data@CascadeClassifier@cv@@V?$allocator@UDTree@Data@CascadeClassifier@cv@@@std@@@std@@QAE@XZ ; std::vector<cv::CascadeClassifier::Data::DTree,std::allocator<cv::CascadeClassifier::Data::DTree> >::~vector<cv::CascadeClassifier::Data::DTree,std::allocator<cv::CascadeClassifier::Data::DTree> >
PUBLIC	??0?$allocator@UDTreeNode@Data@CascadeClassifier@cv@@@std@@QAE@ABV01@@Z ; std::allocator<cv::CascadeClassifier::Data::DTreeNode>::allocator<cv::CascadeClassifier::Data::DTreeNode>
PUBLIC	??0?$_Vector_val@UDTreeNode@Data@CascadeClassifier@cv@@V?$allocator@UDTreeNode@Data@CascadeClassifier@cv@@@std@@@std@@QAE@V?$allocator@UDTreeNode@Data@CascadeClassifier@cv@@@1@@Z ; std::_Vector_val<cv::CascadeClassifier::Data::DTreeNode,std::allocator<cv::CascadeClassifier::Data::DTreeNode> >::_Vector_val<cv::CascadeClassifier::Data::DTreeNode,std::allocator<cv::CascadeClassifier::Data::DTreeNode> >
PUBLIC	?begin@?$vector@UDTreeNode@Data@CascadeClassifier@cv@@V?$allocator@UDTreeNode@Data@CascadeClassifier@cv@@@std@@@std@@QBE?AV?$_Vector_const_iterator@V?$_Vector_val@UDTreeNode@Data@CascadeClassifier@cv@@V?$allocator@UDTreeNode@Data@CascadeClassifier@cv@@@std@@@std@@@2@XZ ; std::vector<cv::CascadeClassifier::Data::DTreeNode,std::allocator<cv::CascadeClassifier::Data::DTreeNode> >::begin
PUBLIC	??0?$_Vector_const_iterator@V?$_Vector_val@UDTreeNode@Data@CascadeClassifier@cv@@V?$allocator@UDTreeNode@Data@CascadeClassifier@cv@@@std@@@std@@@std@@QAE@PAUDTreeNode@Data@CascadeClassifier@cv@@PBU_Container_base0@1@@Z ; std::_Vector_const_iterator<std::_Vector_val<cv::CascadeClassifier::Data::DTreeNode,std::allocator<cv::CascadeClassifier::Data::DTreeNode> > >::_Vector_const_iterator<std::_Vector_val<cv::CascadeClassifier::Data::DTreeNode,std::allocator<cv::CascadeClassifier::Data::DTreeNode> > >
PUBLIC	?end@?$vector@UDTreeNode@Data@CascadeClassifier@cv@@V?$allocator@UDTreeNode@Data@CascadeClassifier@cv@@@std@@@std@@QBE?AV?$_Vector_const_iterator@V?$_Vector_val@UDTreeNode@Data@CascadeClassifier@cv@@V?$allocator@UDTreeNode@Data@CascadeClassifier@cv@@@std@@@std@@@2@XZ ; std::vector<cv::CascadeClassifier::Data::DTreeNode,std::allocator<cv::CascadeClassifier::Data::DTreeNode> >::end
PUBLIC	?size@?$vector@UDTreeNode@Data@CascadeClassifier@cv@@V?$allocator@UDTreeNode@Data@CascadeClassifier@cv@@@std@@@std@@QBEIXZ ; std::vector<cv::CascadeClassifier::Data::DTreeNode,std::allocator<cv::CascadeClassifier::Data::DTreeNode> >::size
PUBLIC	??$_Allocate@UDTreeNode@Data@CascadeClassifier@cv@@@std@@YAPAUDTreeNode@Data@CascadeClassifier@cv@@IPAU1234@@Z ; std::_Allocate<cv::CascadeClassifier::Data::DTreeNode>
PUBLIC	?allocate@?$allocator@UDTreeNode@Data@CascadeClassifier@cv@@@std@@QAEPAUDTreeNode@Data@CascadeClassifier@cv@@I@Z ; std::allocator<cv::CascadeClassifier::Data::DTreeNode>::allocate
PUBLIC	?max_size@?$allocator@UDTreeNode@Data@CascadeClassifier@cv@@@std@@QBEIXZ ; std::allocator<cv::CascadeClassifier::Data::DTreeNode>::max_size
PUBLIC	?max_size@?$vector@UDTreeNode@Data@CascadeClassifier@cv@@V?$allocator@UDTreeNode@Data@CascadeClassifier@cv@@@std@@@std@@QBEIXZ ; std::vector<cv::CascadeClassifier::Data::DTreeNode,std::allocator<cv::CascadeClassifier::Data::DTreeNode> >::max_size
PUBLIC	?_Xlen@?$vector@UDTreeNode@Data@CascadeClassifier@cv@@V?$allocator@UDTreeNode@Data@CascadeClassifier@cv@@@std@@@std@@IBEXXZ ; std::vector<cv::CascadeClassifier::Data::DTreeNode,std::allocator<cv::CascadeClassifier::Data::DTreeNode> >::_Xlen
PUBLIC	?_Buy@?$vector@UDTreeNode@Data@CascadeClassifier@cv@@V?$allocator@UDTreeNode@Data@CascadeClassifier@cv@@@std@@@std@@IAE_NI@Z ; std::vector<cv::CascadeClassifier::Data::DTreeNode,std::allocator<cv::CascadeClassifier::Data::DTreeNode> >::_Buy
PUBLIC	??$_Ptr_cat@V?$_Vector_const_iterator@V?$_Vector_val@UDTreeNode@Data@CascadeClassifier@cv@@V?$allocator@UDTreeNode@Data@CascadeClassifier@cv@@@std@@@std@@@std@@PAUDTreeNode@Data@CascadeClassifier@cv@@@std@@YA?AU_Nonscalar_ptr_iterator_tag@0@AAV?$_Vector_const_iterator@V?$_Vector_val@UDTreeNode@Data@CascadeClassifier@cv@@V?$allocator@UDTreeNode@Data@CascadeClassifier@cv@@@std@@@std@@@0@AAPAUDTreeNode@Data@CascadeClassifier@cv@@@Z ; std::_Ptr_cat<std::_Vector_const_iterator<std::_Vector_val<cv::CascadeClassifier::Data::DTreeNode,std::allocator<cv::CascadeClassifier::Data::DTreeNode> > >,cv::CascadeClassifier::Data::DTreeNode *>
PUBLIC	??D?$_Vector_const_iterator@V?$_Vector_val@UDTreeNode@Data@CascadeClassifier@cv@@V?$allocator@UDTreeNode@Data@CascadeClassifier@cv@@@std@@@std@@@std@@QBEABUDTreeNode@Data@CascadeClassifier@cv@@XZ ; std::_Vector_const_iterator<std::_Vector_val<cv::CascadeClassifier::Data::DTreeNode,std::allocator<cv::CascadeClassifier::Data::DTreeNode> > >::operator*
PUBLIC	??E?$_Vector_const_iterator@V?$_Vector_val@UDTreeNode@Data@CascadeClassifier@cv@@V?$allocator@UDTreeNode@Data@CascadeClassifier@cv@@@std@@@std@@@std@@QAEAAV01@XZ ; std::_Vector_const_iterator<std::_Vector_val<cv::CascadeClassifier::Data::DTreeNode,std::allocator<cv::CascadeClassifier::Data::DTreeNode> > >::operator++
PUBLIC	?_Compat@?$_Vector_const_iterator@V?$_Vector_val@UDTreeNode@Data@CascadeClassifier@cv@@V?$allocator@UDTreeNode@Data@CascadeClassifier@cv@@@std@@@std@@@std@@QBEXABV12@@Z ; std::_Vector_const_iterator<std::_Vector_val<cv::CascadeClassifier::Data::DTreeNode,std::allocator<cv::CascadeClassifier::Data::DTreeNode> > >::_Compat
PUBLIC	??8?$_Vector_const_iterator@V?$_Vector_val@UDTreeNode@Data@CascadeClassifier@cv@@V?$allocator@UDTreeNode@Data@CascadeClassifier@cv@@@std@@@std@@@std@@QBE_NABV01@@Z ; std::_Vector_const_iterator<std::_Vector_val<cv::CascadeClassifier::Data::DTreeNode,std::allocator<cv::CascadeClassifier::Data::DTreeNode> > >::operator==
PUBLIC	??9?$_Vector_const_iterator@V?$_Vector_val@UDTreeNode@Data@CascadeClassifier@cv@@V?$allocator@UDTreeNode@Data@CascadeClassifier@cv@@@std@@@std@@@std@@QBE_NABV01@@Z ; std::_Vector_const_iterator<std::_Vector_val<cv::CascadeClassifier::Data::DTreeNode,std::allocator<cv::CascadeClassifier::Data::DTreeNode> > >::operator!=
PUBLIC	??$_Construct@UDTreeNode@Data@CascadeClassifier@cv@@ABU1234@@std@@YAXPAUDTreeNode@Data@CascadeClassifier@cv@@ABU1234@@Z ; std::_Construct<cv::CascadeClassifier::Data::DTreeNode,cv::CascadeClassifier::Data::DTreeNode const &>
PUBLIC	?construct@?$allocator@UDTreeNode@Data@CascadeClassifier@cv@@@std@@QAEXPAUDTreeNode@Data@CascadeClassifier@cv@@ABU3456@@Z ; std::allocator<cv::CascadeClassifier::Data::DTreeNode>::construct
PUBLIC	??$forward@ABUDTreeNode@Data@CascadeClassifier@cv@@@std@@YAABUDTreeNode@Data@CascadeClassifier@cv@@ABU1234@@Z ; std::forward<cv::CascadeClassifier::Data::DTreeNode const &>
PUBLIC	??$_Cons_val@V?$allocator@UDTreeNode@Data@CascadeClassifier@cv@@@std@@UDTreeNode@Data@CascadeClassifier@cv@@ABU3456@@std@@YAXAAV?$allocator@UDTreeNode@Data@CascadeClassifier@cv@@@0@PAUDTreeNode@Data@CascadeClassifier@cv@@ABU2345@@Z ; std::_Cons_val<std::allocator<cv::CascadeClassifier::Data::DTreeNode>,cv::CascadeClassifier::Data::DTreeNode,cv::CascadeClassifier::Data::DTreeNode const &>
PUBLIC	??$_Uninit_copy@V?$_Vector_const_iterator@V?$_Vector_val@UDTreeNode@Data@CascadeClassifier@cv@@V?$allocator@UDTreeNode@Data@CascadeClassifier@cv@@@std@@@std@@@std@@PAUDTreeNode@Data@CascadeClassifier@cv@@V?$allocator@UDTreeNode@Data@CascadeClassifier@cv@@@2@@std@@YAPAUDTreeNode@Data@CascadeClassifier@cv@@V?$_Vector_const_iterator@V?$_Vector_val@UDTreeNode@Data@CascadeClassifier@cv@@V?$allocator@UDTreeNode@Data@CascadeClassifier@cv@@@std@@@std@@@0@0PAU1234@AAV?$allocator@UDTreeNode@Data@CascadeClassifier@cv@@@0@U_Nonscalar_ptr_iterator_tag@0@@Z ; std::_Uninit_copy<std::_Vector_const_iterator<std::_Vector_val<cv::CascadeClassifier::Data::DTreeNode,std::allocator<cv::CascadeClassifier::Data::DTreeNode> > >,cv::CascadeClassifier::Data::DTreeNode *,std::allocator<cv::CascadeClassifier::Data::DTreeNode> >
PUBLIC	??$_Uninitialized_copy@V?$_Vector_const_iterator@V?$_Vector_val@UDTreeNode@Data@CascadeClassifier@cv@@V?$allocator@UDTreeNode@Data@CascadeClassifier@cv@@@std@@@std@@@std@@PAUDTreeNode@Data@CascadeClassifier@cv@@V?$allocator@UDTreeNode@Data@CascadeClassifier@cv@@@2@@std@@YAPAUDTreeNode@Data@CascadeClassifier@cv@@V?$_Vector_const_iterator@V?$_Vector_val@UDTreeNode@Data@CascadeClassifier@cv@@V?$allocator@UDTreeNode@Data@CascadeClassifier@cv@@@std@@@std@@@0@0PAU1234@AAV?$allocator@UDTreeNode@Data@CascadeClassifier@cv@@@0@@Z ; std::_Uninitialized_copy<std::_Vector_const_iterator<std::_Vector_val<cv::CascadeClassifier::Data::DTreeNode,std::allocator<cv::CascadeClassifier::Data::DTreeNode> > >,cv::CascadeClassifier::Data::DTreeNode *,std::allocator<cv::CascadeClassifier::Data::DTreeNode> >
PUBLIC	??$_Ucopy@V?$_Vector_const_iterator@V?$_Vector_val@UDTreeNode@Data@CascadeClassifier@cv@@V?$allocator@UDTreeNode@Data@CascadeClassifier@cv@@@std@@@std@@@std@@@?$vector@UDTreeNode@Data@CascadeClassifier@cv@@V?$allocator@UDTreeNode@Data@CascadeClassifier@cv@@@std@@@std@@IAEPAUDTreeNode@Data@CascadeClassifier@cv@@V?$_Vector_const_iterator@V?$_Vector_val@UDTreeNode@Data@CascadeClassifier@cv@@V?$allocator@UDTreeNode@Data@CascadeClassifier@cv@@@std@@@std@@@1@0PAU2345@@Z ; std::vector<cv::CascadeClassifier::Data::DTreeNode,std::allocator<cv::CascadeClassifier::Data::DTreeNode> >::_Ucopy<std::_Vector_const_iterator<std::_Vector_val<cv::CascadeClassifier::Data::DTreeNode,std::allocator<cv::CascadeClassifier::Data::DTreeNode> > > >
PUBLIC	??0?$vector@UDTreeNode@Data@CascadeClassifier@cv@@V?$allocator@UDTreeNode@Data@CascadeClassifier@cv@@@std@@@std@@QAE@ABV01@@Z ; std::vector<cv::CascadeClassifier::Data::DTreeNode,std::allocator<cv::CascadeClassifier::Data::DTreeNode> >::vector<cv::CascadeClassifier::Data::DTreeNode,std::allocator<cv::CascadeClassifier::Data::DTreeNode> >
PUBLIC	??1?$_Vector_val@UDTreeNode@Data@CascadeClassifier@cv@@V?$allocator@UDTreeNode@Data@CascadeClassifier@cv@@@std@@@std@@QAE@XZ ; std::_Vector_val<cv::CascadeClassifier::Data::DTreeNode,std::allocator<cv::CascadeClassifier::Data::DTreeNode> >::~_Vector_val<cv::CascadeClassifier::Data::DTreeNode,std::allocator<cv::CascadeClassifier::Data::DTreeNode> >
PUBLIC	?deallocate@?$allocator@UDTreeNode@Data@CascadeClassifier@cv@@@std@@QAEXPAUDTreeNode@Data@CascadeClassifier@cv@@I@Z ; std::allocator<cv::CascadeClassifier::Data::DTreeNode>::deallocate
PUBLIC	??$_Ptr_cat@UDTreeNode@Data@CascadeClassifier@cv@@U1234@@std@@YA?AU_Nonscalar_ptr_iterator_tag@0@PAUDTreeNode@Data@CascadeClassifier@cv@@0@Z ; std::_Ptr_cat<cv::CascadeClassifier::Data::DTreeNode,cv::CascadeClassifier::Data::DTreeNode>
PUBLIC	??$_Destroy@UDTreeNode@Data@CascadeClassifier@cv@@@std@@YAXPAUDTreeNode@Data@CascadeClassifier@cv@@@Z ; std::_Destroy<cv::CascadeClassifier::Data::DTreeNode>
PUBLIC	?destroy@?$allocator@UDTreeNode@Data@CascadeClassifier@cv@@@std@@QAEXPAUDTreeNode@Data@CascadeClassifier@cv@@@Z ; std::allocator<cv::CascadeClassifier::Data::DTreeNode>::destroy
PUBLIC	??$_Dest_val@V?$allocator@UDTreeNode@Data@CascadeClassifier@cv@@@std@@UDTreeNode@Data@CascadeClassifier@cv@@@std@@YAXAAV?$allocator@UDTreeNode@Data@CascadeClassifier@cv@@@0@PAUDTreeNode@Data@CascadeClassifier@cv@@@Z ; std::_Dest_val<std::allocator<cv::CascadeClassifier::Data::DTreeNode>,cv::CascadeClassifier::Data::DTreeNode>
PUBLIC	??$_Destroy_range@V?$allocator@UDTreeNode@Data@CascadeClassifier@cv@@@std@@@std@@YAXPAUDTreeNode@Data@CascadeClassifier@cv@@0AAV?$allocator@UDTreeNode@Data@CascadeClassifier@cv@@@0@U_Nonscalar_ptr_iterator_tag@0@@Z ; std::_Destroy_range<std::allocator<cv::CascadeClassifier::Data::DTreeNode> >
PUBLIC	??$_Destroy_range@V?$allocator@UDTreeNode@Data@CascadeClassifier@cv@@@std@@@std@@YAXPAUDTreeNode@Data@CascadeClassifier@cv@@0AAV?$allocator@UDTreeNode@Data@CascadeClassifier@cv@@@0@@Z ; std::_Destroy_range<std::allocator<cv::CascadeClassifier::Data::DTreeNode> >
PUBLIC	?_Destroy@?$vector@UDTreeNode@Data@CascadeClassifier@cv@@V?$allocator@UDTreeNode@Data@CascadeClassifier@cv@@@std@@@std@@IAEXPAUDTreeNode@Data@CascadeClassifier@cv@@0@Z ; std::vector<cv::CascadeClassifier::Data::DTreeNode,std::allocator<cv::CascadeClassifier::Data::DTreeNode> >::_Destroy
PUBLIC	?_Tidy@?$vector@UDTreeNode@Data@CascadeClassifier@cv@@V?$allocator@UDTreeNode@Data@CascadeClassifier@cv@@@std@@@std@@IAEXXZ ; std::vector<cv::CascadeClassifier::Data::DTreeNode,std::allocator<cv::CascadeClassifier::Data::DTreeNode> >::_Tidy
PUBLIC	??1?$vector@UDTreeNode@Data@CascadeClassifier@cv@@V?$allocator@UDTreeNode@Data@CascadeClassifier@cv@@@std@@@std@@QAE@XZ ; std::vector<cv::CascadeClassifier::Data::DTreeNode,std::allocator<cv::CascadeClassifier::Data::DTreeNode> >::~vector<cv::CascadeClassifier::Data::DTreeNode,std::allocator<cv::CascadeClassifier::Data::DTreeNode> >
PUBLIC	??0?$allocator@M@std@@QAE@ABV01@@Z		; std::allocator<float>::allocator<float>
PUBLIC	??0?$_Vector_val@MV?$allocator@M@std@@@std@@QAE@V?$allocator@M@1@@Z ; std::_Vector_val<float,std::allocator<float> >::_Vector_val<float,std::allocator<float> >
PUBLIC	?begin@?$vector@MV?$allocator@M@std@@@std@@QBE?AV?$_Vector_const_iterator@V?$_Vector_val@MV?$allocator@M@std@@@std@@@2@XZ ; std::vector<float,std::allocator<float> >::begin
PUBLIC	?_Adopt@_Iterator_base0@std@@QAEXPBX@Z		; std::_Iterator_base0::_Adopt
PUBLIC	??0?$_Vector_const_iterator@V?$_Vector_val@MV?$allocator@M@std@@@std@@@std@@QAE@PAMPBU_Container_base0@1@@Z ; std::_Vector_const_iterator<std::_Vector_val<float,std::allocator<float> > >::_Vector_const_iterator<std::_Vector_val<float,std::allocator<float> > >
PUBLIC	?end@?$vector@MV?$allocator@M@std@@@std@@QBE?AV?$_Vector_const_iterator@V?$_Vector_val@MV?$allocator@M@std@@@std@@@2@XZ ; std::vector<float,std::allocator<float> >::end
PUBLIC	?size@?$vector@MV?$allocator@M@std@@@std@@QBEIXZ ; std::vector<float,std::allocator<float> >::size
PUBLIC	??0bad_alloc@std@@QAE@PBD@Z			; std::bad_alloc::bad_alloc
PUBLIC	??1bad_alloc@std@@UAE@XZ			; std::bad_alloc::~bad_alloc
PUBLIC	??_Gbad_alloc@std@@UAEPAXI@Z			; std::bad_alloc::`scalar deleting destructor'
PUBLIC	??0bad_alloc@std@@QAE@ABV01@@Z			; std::bad_alloc::bad_alloc
PUBLIC	??$_Allocate@M@std@@YAPAMIPAM@Z			; std::_Allocate<float>
PUBLIC	?allocate@?$allocator@M@std@@QAEPAMI@Z		; std::allocator<float>::allocate
PUBLIC	?max_size@?$allocator@M@std@@QBEIXZ		; std::allocator<float>::max_size
PUBLIC	?max_size@?$vector@MV?$allocator@M@std@@@std@@QBEIXZ ; std::vector<float,std::allocator<float> >::max_size
PUBLIC	?_Xlen@?$vector@MV?$allocator@M@std@@@std@@IBEXXZ ; std::vector<float,std::allocator<float> >::_Xlen
PUBLIC	?_Buy@?$vector@MV?$allocator@M@std@@@std@@IAE_NI@Z ; std::vector<float,std::allocator<float> >::_Buy
PUBLIC	??$_Ptr_cat@V?$_Vector_const_iterator@V?$_Vector_val@MV?$allocator@M@std@@@std@@@std@@PAM@std@@YA?AU_Nonscalar_ptr_iterator_tag@0@AAV?$_Vector_const_iterator@V?$_Vector_val@MV?$allocator@M@std@@@std@@@0@AAPAM@Z ; std::_Ptr_cat<std::_Vector_const_iterator<std::_Vector_val<float,std::allocator<float> > >,float *>
PUBLIC	??D?$_Vector_const_iterator@V?$_Vector_val@MV?$allocator@M@std@@@std@@@std@@QBEABMXZ ; std::_Vector_const_iterator<std::_Vector_val<float,std::allocator<float> > >::operator*
PUBLIC	??E?$_Vector_const_iterator@V?$_Vector_val@MV?$allocator@M@std@@@std@@@std@@QAEAAV01@XZ ; std::_Vector_const_iterator<std::_Vector_val<float,std::allocator<float> > >::operator++
PUBLIC	?_Compat@?$_Vector_const_iterator@V?$_Vector_val@MV?$allocator@M@std@@@std@@@std@@QBEXABV12@@Z ; std::_Vector_const_iterator<std::_Vector_val<float,std::allocator<float> > >::_Compat
PUBLIC	??8?$_Vector_const_iterator@V?$_Vector_val@MV?$allocator@M@std@@@std@@@std@@QBE_NABV01@@Z ; std::_Vector_const_iterator<std::_Vector_val<float,std::allocator<float> > >::operator==
PUBLIC	??9?$_Vector_const_iterator@V?$_Vector_val@MV?$allocator@M@std@@@std@@@std@@QBE_NABV01@@Z ; std::_Vector_const_iterator<std::_Vector_val<float,std::allocator<float> > >::operator!=
PUBLIC	??2@YAPAXIPAX@Z					; operator new
PUBLIC	??3@YAXPAX0@Z					; operator delete
PUBLIC	??$_Construct@MABM@std@@YAXPAMABM@Z		; std::_Construct<float,float const &>
PUBLIC	?construct@?$allocator@M@std@@QAEXPAMABM@Z	; std::allocator<float>::construct
PUBLIC	??$forward@ABM@std@@YAABMABM@Z			; std::forward<float const &>
PUBLIC	??$_Cons_val@V?$allocator@M@std@@MABM@std@@YAXAAV?$allocator@M@0@PAMABM@Z ; std::_Cons_val<std::allocator<float>,float,float const &>
PUBLIC	??$_Destroy@M@std@@YAXPAM@Z			; std::_Destroy<float>
PUBLIC	?destroy@?$allocator@M@std@@QAEXPAM@Z		; std::allocator<float>::destroy
PUBLIC	??$_Dest_val@V?$allocator@M@std@@M@std@@YAXAAV?$allocator@M@0@PAM@Z ; std::_Dest_val<std::allocator<float>,float>
PUBLIC	??$_Uninit_copy@V?$_Vector_const_iterator@V?$_Vector_val@MV?$allocator@M@std@@@std@@@std@@PAMV?$allocator@M@2@@std@@YAPAMV?$_Vector_const_iterator@V?$_Vector_val@MV?$allocator@M@std@@@std@@@0@0PAMAAV?$allocator@M@0@U_Nonscalar_ptr_iterator_tag@0@@Z ; std::_Uninit_copy<std::_Vector_const_iterator<std::_Vector_val<float,std::allocator<float> > >,float *,std::allocator<float> >
PUBLIC	??$_Uninitialized_copy@V?$_Vector_const_iterator@V?$_Vector_val@MV?$allocator@M@std@@@std@@@std@@PAMV?$allocator@M@2@@std@@YAPAMV?$_Vector_const_iterator@V?$_Vector_val@MV?$allocator@M@std@@@std@@@0@0PAMAAV?$allocator@M@0@@Z ; std::_Uninitialized_copy<std::_Vector_const_iterator<std::_Vector_val<float,std::allocator<float> > >,float *,std::allocator<float> >
PUBLIC	??$_Ucopy@V?$_Vector_const_iterator@V?$_Vector_val@MV?$allocator@M@std@@@std@@@std@@@?$vector@MV?$allocator@M@std@@@std@@IAEPAMV?$_Vector_const_iterator@V?$_Vector_val@MV?$allocator@M@std@@@std@@@1@0PAM@Z ; std::vector<float,std::allocator<float> >::_Ucopy<std::_Vector_const_iterator<std::_Vector_val<float,std::allocator<float> > > >
PUBLIC	??0?$vector@MV?$allocator@M@std@@@std@@QAE@ABV01@@Z ; std::vector<float,std::allocator<float> >::vector<float,std::allocator<float> >
PUBLIC	??1?$_Vector_val@MV?$allocator@M@std@@@std@@QAE@XZ ; std::_Vector_val<float,std::allocator<float> >::~_Vector_val<float,std::allocator<float> >
PUBLIC	?deallocate@?$allocator@M@std@@QAEXPAMI@Z	; std::allocator<float>::deallocate
PUBLIC	??$_Ptr_cat@MM@std@@YA?AU_Scalar_ptr_iterator_tag@0@PAM0@Z ; std::_Ptr_cat<float,float>
PUBLIC	??$_Destroy_range@V?$allocator@M@std@@@std@@YAXPAM0AAV?$allocator@M@0@U_Scalar_ptr_iterator_tag@0@@Z ; std::_Destroy_range<std::allocator<float> >
PUBLIC	??$_Destroy_range@V?$allocator@M@std@@@std@@YAXPAM0AAV?$allocator@M@0@@Z ; std::_Destroy_range<std::allocator<float> >
PUBLIC	?_Destroy@?$vector@MV?$allocator@M@std@@@std@@IAEXPAM0@Z ; std::vector<float,std::allocator<float> >::_Destroy
PUBLIC	?_Tidy@?$vector@MV?$allocator@M@std@@@std@@IAEXXZ ; std::vector<float,std::allocator<float> >::_Tidy
PUBLIC	??1?$vector@MV?$allocator@M@std@@@std@@QAE@XZ	; std::vector<float,std::allocator<float> >::~vector<float,std::allocator<float> >
PUBLIC	??0Data@CascadeClassifier@cv@@QAE@ABV012@@Z	; cv::CascadeClassifier::Data::Data
PUBLIC	?delete_obj@?$Ptr@VFeatureEvaluator@cv@@@cv@@QAEXXZ ; cv::Ptr<cv::FeatureEvaluator>::delete_obj
PUBLIC	?release@?$Ptr@VFeatureEvaluator@cv@@@cv@@QAEXXZ ; cv::Ptr<cv::FeatureEvaluator>::release
PUBLIC	??1?$Ptr@VFeatureEvaluator@cv@@@cv@@QAE@XZ	; cv::Ptr<cv::FeatureEvaluator>::~Ptr<cv::FeatureEvaluator>
PUBLIC	?addref@?$Ptr@VFeatureEvaluator@cv@@@cv@@QAEXXZ	; cv::Ptr<cv::FeatureEvaluator>::addref
PUBLIC	??0?$Ptr@VFeatureEvaluator@cv@@@cv@@QAE@ABV01@@Z ; cv::Ptr<cv::FeatureEvaluator>::Ptr<cv::FeatureEvaluator>
PUBLIC	?delete_obj@?$Ptr@VMaskGenerator@CascadeClassifier@cv@@@cv@@QAEXXZ ; cv::Ptr<cv::CascadeClassifier::MaskGenerator>::delete_obj
PUBLIC	?release@?$Ptr@VMaskGenerator@CascadeClassifier@cv@@@cv@@QAEXXZ ; cv::Ptr<cv::CascadeClassifier::MaskGenerator>::release
PUBLIC	??1?$Ptr@VMaskGenerator@CascadeClassifier@cv@@@cv@@QAE@XZ ; cv::Ptr<cv::CascadeClassifier::MaskGenerator>::~Ptr<cv::CascadeClassifier::MaskGenerator>
PUBLIC	?addref@?$Ptr@VMaskGenerator@CascadeClassifier@cv@@@cv@@QAEXXZ ; cv::Ptr<cv::CascadeClassifier::MaskGenerator>::addref
PUBLIC	??0?$Ptr@VMaskGenerator@CascadeClassifier@cv@@@cv@@QAE@ABV01@@Z ; cv::Ptr<cv::CascadeClassifier::MaskGenerator>::Ptr<cv::CascadeClassifier::MaskGenerator>
PUBLIC	??_GCascadeClassifier@cv@@UAEPAXI@Z		; cv::CascadeClassifier::`scalar deleting destructor'
PUBLIC	??0CascadeClassifier@cv@@QAE@ABV01@@Z		; cv::CascadeClassifier::CascadeClassifier
PUBLIC	??0_InputArray@cv@@QAE@ABV?$Scalar_@N@1@@Z	; cv::_InputArray::_InputArray
PUBLIC	??0?$Size_@H@cv@@QAE@HH@Z			; cv::Size_<int>::Size_<int>
PUBLIC	?initEmpty@Mat@cv@@IAEXXZ			; cv::Mat::initEmpty
PUBLIC	??0Mat@cv@@QAE@XZ				; cv::Mat::Mat
PUBLIC	??0MSize@Mat@cv@@QAE@PAH@Z			; cv::Mat::MSize::MSize
PUBLIC	??0MStep@Mat@cv@@QAE@XZ				; cv::Mat::MStep::MStep
PUBLIC	??AMStep@Mat@cv@@QBEABIH@Z			; cv::Mat::MStep::operator[]
PUBLIC	??AMStep@Mat@cv@@QAEAAIH@Z			; cv::Mat::MStep::operator[]
PUBLIC	??0Mat@cv@@QAE@ABV01@@Z				; cv::Mat::Mat
PUBLIC	?release@Mat@cv@@QAEXXZ				; cv::Mat::release
PUBLIC	??1Mat@cv@@QAE@XZ				; cv::Mat::~Mat
PUBLIC	??0?$Point_@H@cv@@QAE@HH@Z			; cv::Point_<int>::Point_<int>
PUBLIC	??0?$Matx@N$03$00@cv@@QAE@XZ			; cv::Matx<double,4,1>::Matx<double,4,1>
PUBLIC	??0?$Vec@N$03@cv@@QAE@XZ			; cv::Vec<double,4>::Vec<double,4>
PUBLIC	??0?$Scalar_@N@cv@@QAE@NNNN@Z			; cv::Scalar_<double>::Scalar_<double>
PUBLIC	?all@?$Scalar_@N@cv@@SA?AV12@N@Z		; cv::Scalar_<double>::all
PUBLIC	??0?$allocator@D@std@@QAE@XZ			; std::allocator<char>::allocator<char>
PUBLIC	??0?$allocator@D@std@@QAE@ABV01@@Z		; std::allocator<char>::allocator<char>
PUBLIC	??0?$_String_val@DV?$allocator@D@std@@@std@@QAE@V?$allocator@D@1@@Z ; std::_String_val<char,std::allocator<char> >::_String_val<char,std::allocator<char> >
PUBLIC	??0?$basic_string@DU?$char_traits@D@std@@V?$allocator@D@2@@std@@QAE@XZ ; std::basic_string<char,std::char_traits<char>,std::allocator<char> >::basic_string<char,std::char_traits<char>,std::allocator<char> >
PUBLIC	??1?$_String_val@DV?$allocator@D@std@@@std@@QAE@XZ ; std::_String_val<char,std::allocator<char> >::~_String_val<char,std::allocator<char> >
PUBLIC	?copy@?$char_traits@D@std@@SAPADPADPBDI@Z	; std::char_traits<char>::copy
PUBLIC	?deallocate@?$allocator@D@std@@QAEXPADI@Z	; std::allocator<char>::deallocate
PUBLIC	?assign@?$char_traits@D@std@@SAXAADABD@Z	; std::char_traits<char>::assign
PUBLIC	?_Myptr@?$basic_string@DU?$char_traits@D@std@@V?$allocator@D@2@@std@@QAEPADXZ ; std::basic_string<char,std::char_traits<char>,std::allocator<char> >::_Myptr
PUBLIC	?_Eos@?$basic_string@DU?$char_traits@D@std@@V?$allocator@D@2@@std@@QAEXI@Z ; std::basic_string<char,std::char_traits<char>,std::allocator<char> >::_Eos
PUBLIC	?_Tidy@?$basic_string@DU?$char_traits@D@std@@V?$allocator@D@2@@std@@QAEX_NI@Z ; std::basic_string<char,std::char_traits<char>,std::allocator<char> >::_Tidy
PUBLIC	??1?$basic_string@DU?$char_traits@D@std@@V?$allocator@D@2@@std@@QAE@XZ ; std::basic_string<char,std::char_traits<char>,std::allocator<char> >::~basic_string<char,std::char_traits<char>,std::allocator<char> >
PUBLIC	_signID
PUBLIC	_axisValue
PUBLIC	?MAX_OBJECT_AREA@@3HA				; MAX_OBJECT_AREA
PUBLIC	??_R0?AVexception@std@@@8			; std::exception `RTTI Type Descriptor'
PUBLIC	__CT??_R0?AVexception@std@@@8??0exception@std@@QAE@ABV01@@Z12
PUBLIC	??_C@_0O@ENPJBMMB@Detecting?5?4?4?4?$AA@	; `string'
PUBLIC	??_C@_0BG@GANHPLLF@classifier_enable?4xml?$AA@	; `string'
PUBLIC	??_C@_0BH@OOLANKBA@classifier_disable?4xml?$AA@	; `string'
PUBLIC	??_C@_0BB@HGDFHEIC@Axis?5value?5?$DN?5?$CFd?6?$AA@ ; `string'
PUBLIC	??_C@_0BI@CFPLBAOH@invalid?5string?5position?$AA@ ; `string'
PUBLIC	??_C@_0BD@OLBABOEK@vector?$DMT?$DO?5too?5long?$AA@ ; `string'
PUBLIC	??_C@_0BA@JFNIOLAK@string?5too?5long?$AA@	; `string'
PUBLIC	?npos@?$basic_string@DU?$char_traits@D@std@@V?$allocator@D@2@@std@@2IB ; std::basic_string<char,std::char_traits<char>,std::allocator<char> >::npos
PUBLIC	?_Stz@?$fpos@H@std@@0HB				; std::fpos<int>::_Stz
PUBLIC	??_R0?AVbad_alloc@std@@@8			; std::bad_alloc `RTTI Type Descriptor'
PUBLIC	__CT??_R0?AVbad_alloc@std@@@8??0bad_alloc@std@@QAE@ABV01@@Z12
PUBLIC	__CTA2?AVbad_alloc@std@@
PUBLIC	__TI2?AVbad_alloc@std@@
PUBLIC	??_7bad_alloc@std@@6B@				; std::bad_alloc::`vftable'
PUBLIC	??_7?$basic_stringbuf@DU?$char_traits@D@std@@V?$allocator@D@2@@std@@6B@ ; std::basic_stringbuf<char,std::char_traits<char>,std::allocator<char> >::`vftable'
PUBLIC	??_7?$basic_stringstream@DU?$char_traits@D@std@@V?$allocator@D@2@@std@@6B@ ; std::basic_stringstream<char,std::char_traits<char>,std::allocator<char> >::`vftable'
PUBLIC	??_8?$basic_stringstream@DU?$char_traits@D@std@@V?$allocator@D@2@@std@@7B?$basic_istream@DU?$char_traits@D@std@@@1@@ ; std::basic_stringstream<char,std::char_traits<char>,std::allocator<char> >::`vbtable'
PUBLIC	??_8?$basic_stringstream@DU?$char_traits@D@std@@V?$allocator@D@2@@std@@7B?$basic_ostream@DU?$char_traits@D@std@@@1@@ ; std::basic_stringstream<char,std::char_traits<char>,std::allocator<char> >::`vbtable'
PUBLIC	??_7_InputArray@cv@@6B@				; cv::_InputArray::`vftable'
PUBLIC	??_7_OutputArray@cv@@6B@			; cv::_OutputArray::`vftable'
PUBLIC	??_7CascadeClassifier@cv@@6B@			; cv::CascadeClassifier::`vftable'
EXTRN	?runAt@CascadeClassifier@cv@@MAEHAAV?$Ptr@VFeatureEvaluator@cv@@@2@V?$Point_@H@2@AAN@Z:PROC ; cv::CascadeClassifier::runAt
EXTRN	?detectSingleScale@CascadeClassifier@cv@@MAE_NABVMat@2@HV?$Size_@H@2@HHNAAV?$vector@V?$Rect_@H@cv@@V?$allocator@V?$Rect_@H@cv@@@std@@@std@@AAV?$vector@HV?$allocator@H@std@@@6@AAV?$vector@NV?$allocator@N@std@@@6@_N@Z:PROC ; cv::CascadeClassifier::detectSingleScale
EXTRN	?getOriginalWindowSize@CascadeClassifier@cv@@UBE?AV?$Size_@H@2@XZ:PROC ; cv::CascadeClassifier::getOriginalWindowSize
EXTRN	?detectMultiScale@CascadeClassifier@cv@@UAEXABVMat@2@AAV?$vector@V?$Rect_@H@cv@@V?$allocator@V?$Rect_@H@cv@@@std@@@std@@NHHV?$Size_@H@2@2@Z:PROC ; cv::CascadeClassifier::detectMultiScale
EXTRN	?detectMultiScale@CascadeClassifier@cv@@UAEXABVMat@2@AAV?$vector@V?$Rect_@H@cv@@V?$allocator@V?$Rect_@H@cv@@@std@@@std@@AAV?$vector@HV?$allocator@H@std@@@5@AAV?$vector@NV?$allocator@N@std@@@5@NHHV?$Size_@H@2@4_N@Z:PROC ; cv::CascadeClassifier::detectMultiScale
EXTRN	?read@CascadeClassifier@cv@@UAE_NABVFileNode@2@@Z:PROC ; cv::CascadeClassifier::read
EXTRN	?empty@CascadeClassifier@cv@@UBE_NXZ:PROC	; cv::CascadeClassifier::empty
EXTRN	?clear@_OutputArray@cv@@UBEXXZ:PROC		; cv::_OutputArray::clear
EXTRN	?release@_OutputArray@cv@@UBEXXZ:PROC		; cv::_OutputArray::release
EXTRN	?create@_OutputArray@cv@@UBEXV?$Size_@H@2@HH_NH@Z:PROC ; cv::_OutputArray::create
EXTRN	?create@_OutputArray@cv@@UBEXHHHH_NH@Z:PROC	; cv::_OutputArray::create
EXTRN	?create@_OutputArray@cv@@UBEXHPBHHH_NH@Z:PROC	; cv::_OutputArray::create
EXTRN	?getMatRef@_OutputArray@cv@@UBEAAVMat@2@H@Z:PROC ; cv::_OutputArray::getMatRef
EXTRN	?needed@_OutputArray@cv@@UBE_NXZ:PROC		; cv::_OutputArray::needed
EXTRN	?fixedType@_OutputArray@cv@@UBE_NXZ:PROC	; cv::_OutputArray::fixedType
EXTRN	?fixedSize@_OutputArray@cv@@UBE_NXZ:PROC	; cv::_OutputArray::fixedSize
EXTRN	?empty@_InputArray@cv@@UBE_NXZ:PROC		; cv::_InputArray::empty
EXTRN	?channels@_InputArray@cv@@UBEHH@Z:PROC		; cv::_InputArray::channels
EXTRN	?depth@_InputArray@cv@@UBEHH@Z:PROC		; cv::_InputArray::depth
EXTRN	?type@_InputArray@cv@@UBEHH@Z:PROC		; cv::_InputArray::type
EXTRN	?total@_InputArray@cv@@UBEIH@Z:PROC		; cv::_InputArray::total
EXTRN	?size@_InputArray@cv@@UBE?AV?$Size_@H@2@H@Z:PROC ; cv::_InputArray::size
EXTRN	?kind@_InputArray@cv@@UBEHXZ:PROC		; cv::_InputArray::kind
EXTRN	?getGpuMat@_InputArray@cv@@UBE?AVGpuMat@gpu@2@XZ:PROC ; cv::_InputArray::getGpuMat
EXTRN	?getGlTexture@_InputArray@cv@@UBE?AVGlTexture@2@XZ:PROC ; cv::_InputArray::getGlTexture
EXTRN	?getGlBuffer@_InputArray@cv@@UBE?AVGlBuffer@2@XZ:PROC ; cv::_InputArray::getGlBuffer
EXTRN	?getMatVector@_InputArray@cv@@UBEXAAV?$vector@VMat@cv@@V?$allocator@VMat@cv@@@std@@@std@@@Z:PROC ; cv::_InputArray::getMatVector
EXTRN	?getMat@_InputArray@cv@@UBE?AVMat@2@H@Z:PROC	; cv::_InputArray::getMat
EXTRN	?imbue@?$basic_streambuf@DU?$char_traits@D@std@@@std@@MAEXABVlocale@2@@Z:PROC ; std::basic_streambuf<char,std::char_traits<char> >::imbue
EXTRN	?sync@?$basic_streambuf@DU?$char_traits@D@std@@@std@@MAEHXZ:PROC ; std::basic_streambuf<char,std::char_traits<char> >::sync
EXTRN	?setbuf@?$basic_streambuf@DU?$char_traits@D@std@@@std@@MAEPAV12@PAD_J@Z:PROC ; std::basic_streambuf<char,std::char_traits<char> >::setbuf
EXTRN	?xsputn@?$basic_streambuf@DU?$char_traits@D@std@@@std@@MAE_JPBD_J@Z:PROC ; std::basic_streambuf<char,std::char_traits<char> >::xsputn
EXTRN	?xsgetn@?$basic_streambuf@DU?$char_traits@D@std@@@std@@MAE_JPAD_J@Z:PROC ; std::basic_streambuf<char,std::char_traits<char> >::xsgetn
EXTRN	?uflow@?$basic_streambuf@DU?$char_traits@D@std@@@std@@MAEHXZ:PROC ; std::basic_streambuf<char,std::char_traits<char> >::uflow
EXTRN	?showmanyc@?$basic_streambuf@DU?$char_traits@D@std@@@std@@MAE_JXZ:PROC ; std::basic_streambuf<char,std::char_traits<char> >::showmanyc
EXTRN	?_Unlock@?$basic_streambuf@DU?$char_traits@D@std@@@std@@UAEXXZ:PROC ; std::basic_streambuf<char,std::char_traits<char> >::_Unlock
EXTRN	?_Lock@?$basic_streambuf@DU?$char_traits@D@std@@@std@@UAEXXZ:PROC ; std::basic_streambuf<char,std::char_traits<char> >::_Lock
EXTRN	?what@exception@std@@UBEPBDXZ:PROC		; std::exception::what
EXTRN	??0exception@std@@QAE@ABV01@@Z:PROC		; std::exception::exception
EXTRN	@__security_check_cookie@4:PROC
EXTRN	__imp_??6?$basic_ostream@DU?$char_traits@D@std@@@std@@QAEAAV01@H@Z:PROC
EXTRN	__imp_??0?$basic_ios@DU?$char_traits@D@std@@@std@@IAE@XZ:PROC
EXTRN	__imp_??0?$basic_iostream@DU?$char_traits@D@std@@@std@@QAE@PAV?$basic_streambuf@DU?$char_traits@D@std@@@1@@Z:PROC
EXTRN	__imp_??0?$basic_streambuf@DU?$char_traits@D@std@@@std@@IAE@XZ:PROC
EXTRN	__imp_??1?$basic_ios@DU?$char_traits@D@std@@@std@@UAE@XZ:PROC
EXTRN	__imp_??_7?$basic_ostream@DU?$char_traits@D@std@@@std@@6B@:QWORD
EXTRN	__imp_??1?$basic_ostream@DU?$char_traits@D@std@@@std@@UAE@XZ:PROC
EXTRN	__imp_??_7?$basic_istream@DU?$char_traits@D@std@@@std@@6B@:QWORD
EXTRN	__imp_??1?$basic_istream@DU?$char_traits@D@std@@@std@@UAE@XZ:PROC
EXTRN	__imp_??_7?$basic_iostream@DU?$char_traits@D@std@@@std@@6B@:QWORD
EXTRN	__imp_??1?$basic_iostream@DU?$char_traits@D@std@@@std@@UAE@XZ:PROC
EXTRN	__imp_??1?$basic_streambuf@DU?$char_traits@D@std@@@std@@UAE@XZ:PROC
EXTRN	__imp_?_Lock@?$basic_streambuf@DU?$char_traits@D@std@@@std@@UAEXXZ:PROC
EXTRN	__imp_?_Unlock@?$basic_streambuf@DU?$char_traits@D@std@@@std@@UAEXXZ:PROC
EXTRN	__imp_?showmanyc@?$basic_streambuf@DU?$char_traits@D@std@@@std@@MAE_JXZ:PROC
EXTRN	__imp_?uflow@?$basic_streambuf@DU?$char_traits@D@std@@@std@@MAEHXZ:PROC
EXTRN	__imp_?xsgetn@?$basic_streambuf@DU?$char_traits@D@std@@@std@@MAE_JPAD_J@Z:PROC
EXTRN	__imp_?xsputn@?$basic_streambuf@DU?$char_traits@D@std@@@std@@MAE_JPBD_J@Z:PROC
EXTRN	__imp_?setbuf@?$basic_streambuf@DU?$char_traits@D@std@@@std@@MAEPAV12@PAD_J@Z:PROC
EXTRN	__imp_?sync@?$basic_streambuf@DU?$char_traits@D@std@@@std@@MAEHXZ:PROC
EXTRN	__imp_?imbue@?$basic_streambuf@DU?$char_traits@D@std@@@std@@MAEXABVlocale@2@@Z:PROC
EXTRN	__imp_?setp@?$basic_streambuf@DU?$char_traits@D@std@@@std@@IAEXPAD0@Z:PROC
EXTRN	__imp_?_Pninc@?$basic_streambuf@DU?$char_traits@D@std@@@std@@IAEPADXZ:PROC
EXTRN	__imp_?egptr@?$basic_streambuf@DU?$char_traits@D@std@@@std@@IBEPADXZ:PROC
EXTRN	__imp_?setg@?$basic_streambuf@DU?$char_traits@D@std@@@std@@IAEXPAD00@Z:PROC
EXTRN	__imp_?_BADOFF@std@@3_JB:QWORD
EXTRN	__imp_?eback@?$basic_streambuf@DU?$char_traits@D@std@@@std@@IBEPADXZ:PROC
EXTRN	__imp_?gptr@?$basic_streambuf@DU?$char_traits@D@std@@@std@@IBEPADXZ:PROC
EXTRN	__imp_?pbase@?$basic_streambuf@DU?$char_traits@D@std@@@std@@IBEPADXZ:PROC
EXTRN	__imp_?pptr@?$basic_streambuf@DU?$char_traits@D@std@@@std@@IBEPADXZ:PROC
EXTRN	__imp_?gbump@?$basic_streambuf@DU?$char_traits@D@std@@@std@@IAEXH@Z:PROC
EXTRN	__imp_?epptr@?$basic_streambuf@DU?$char_traits@D@std@@@std@@IBEPADXZ:PROC
EXTRN	__imp_?pbump@?$basic_streambuf@DU?$char_traits@D@std@@@std@@IAEXH@Z:PROC
EXTRN	__imp_?setp@?$basic_streambuf@DU?$char_traits@D@std@@@std@@IAEXPAD00@Z:PROC
EXTRN	??_E?$basic_stringbuf@DU?$char_traits@D@std@@V?$allocator@D@2@@std@@UAEPAXI@Z:PROC ; std::basic_stringbuf<char,std::char_traits<char>,std::allocator<char> >::`vector deleting destructor'
EXTRN	??_E?$basic_stringstream@DU?$char_traits@D@std@@V?$allocator@D@2@@std@@UAEPAXI@Z:PROC ; std::basic_stringstream<char,std::char_traits<char>,std::allocator<char> >::`vector deleting destructor'
EXTRN	__imp_?create@Mat@cv@@QAEXHPBHH@Z:PROC
EXTRN	__imp__CreateCompatibleDC@4:PROC
EXTRN	__imp__DeleteDC@4:PROC
EXTRN	__imp__DeleteObject@4:PROC
EXTRN	__imp__GetDIBits@28:PROC
EXTRN	__imp__SelectObject@8:PROC
EXTRN	__imp__StretchBlt@44:PROC
EXTRN	__imp__SetStretchBltMode@8:PROC
EXTRN	__imp__ReleaseDC@8:PROC
EXTRN	__imp__GetClientRect@8:PROC
EXTRN	__imp_?ellipse@cv@@YAXAAVMat@1@V?$Point_@H@1@V?$Size_@H@1@NNNABV?$Scalar_@N@1@HHH@Z:PROC
EXTRN	__imp_?equalizeHist@cv@@YAXABV_InputArray@1@ABV_OutputArray@1@@Z:PROC
EXTRN	__imp_?moments@cv@@YA?AVMoments@1@ABV_InputArray@1@_N@Z:PROC
EXTRN	__imp_?findContours@cv@@YAXABV_OutputArray@1@00HHV?$Point_@H@1@@Z:PROC
EXTRN	__imp_?fixedSize@_OutputArray@cv@@UBE_NXZ:PROC
EXTRN	__imp_?fixedType@_OutputArray@cv@@UBE_NXZ:PROC
EXTRN	__imp_?needed@_OutputArray@cv@@UBE_NXZ:PROC
EXTRN	__imp_?getMatRef@_OutputArray@cv@@UBEAAVMat@2@H@Z:PROC
EXTRN	__imp_?create@_OutputArray@cv@@UBEXV?$Size_@H@2@HH_NH@Z:PROC
EXTRN	__imp_?create@_OutputArray@cv@@UBEXHHHH_NH@Z:PROC
EXTRN	__imp_?create@_OutputArray@cv@@UBEXHPBHHH_NH@Z:PROC
EXTRN	__imp_?release@_OutputArray@cv@@UBEXXZ:PROC
EXTRN	__imp_?clear@_OutputArray@cv@@UBEXXZ:PROC
EXTRN	__imp_?copyTo@Mat@cv@@QBEXABV_OutputArray@2@@Z:PROC
EXTRN	__imp__memmove:PROC
EXTRN	__imp_?_Xout_of_range@std@@YAXPBD@Z:PROC
EXTRN	__imp_??0CascadeClassifier@cv@@QAE@XZ:PROC
EXTRN	__imp_?load@CascadeClassifier@cv@@QAE_NABV?$basic_string@DU?$char_traits@D@std@@V?$allocator@D@2@@std@@@Z:PROC
EXTRN	__imp__CreateCompatibleBitmap@12:PROC
EXTRN	__imp__GetSystemMetrics@4:PROC
EXTRN	__imp__GetDC@4:PROC
EXTRN	__imp__GetDesktopWindow@0:PROC
EXTRN	__imp_?delete_obj@?$Ptr@UCvHaarClassifierCascade@@@cv@@QAEXXZ:PROC
EXTRN	__imp_??2@YAPAXI@Z:PROC
EXTRN	__imp_??0exception@std@@QAE@ABQBD@Z:PROC
EXTRN	__imp_??0exception@std@@QAE@ABV01@@Z:PROC
EXTRN	__imp_?what@exception@std@@UBEPBDXZ:PROC
EXTRN	__imp_??1exception@std@@UAE@XZ:PROC
EXTRN	??_Ebad_alloc@std@@UAEPAXI@Z:PROC		; std::bad_alloc::`vector deleting destructor'
EXTRN	__imp_?_Xlength_error@std@@YAXPBD@Z:PROC
EXTRN	__imp_?_Orphan_all@_Container_base0@std@@QAEXXZ:PROC
EXTRN	__imp_?empty@CascadeClassifier@cv@@UBE_NXZ:PROC
EXTRN	__imp_?read@CascadeClassifier@cv@@UAE_NABVFileNode@2@@Z:PROC
EXTRN	__imp_?detectMultiScale@CascadeClassifier@cv@@UAEXABVMat@2@AAV?$vector@V?$Rect_@H@cv@@V?$allocator@V?$Rect_@H@cv@@@std@@@std@@NHHV?$Size_@H@2@2@Z:PROC
EXTRN	__imp_?detectMultiScale@CascadeClassifier@cv@@UAEXABVMat@2@AAV?$vector@V?$Rect_@H@cv@@V?$allocator@V?$Rect_@H@cv@@@std@@@std@@AAV?$vector@HV?$allocator@H@std@@@5@AAV?$vector@NV?$allocator@N@std@@@5@NHHV?$Size_@H@2@4_N@Z:PROC
EXTRN	__imp_?getOriginalWindowSize@CascadeClassifier@cv@@UBE?AV?$Size_@H@2@XZ:PROC
EXTRN	__imp_?detectSingleScale@CascadeClassifier@cv@@MAE_NABVMat@2@HV?$Size_@H@2@HHNAAV?$vector@V?$Rect_@H@cv@@V?$allocator@V?$Rect_@H@cv@@@std@@@std@@AAV?$vector@HV?$allocator@H@std@@@6@AAV?$vector@NV?$allocator@N@std@@@6@_N@Z:PROC
EXTRN	__imp_?runAt@CascadeClassifier@cv@@MAEHAAV?$Ptr@VFeatureEvaluator@cv@@@2@V?$Point_@H@2@AAN@Z:PROC
EXTRN	__imp_??1CascadeClassifier@cv@@UAE@XZ:PROC
EXTRN	??_ECascadeClassifier@cv@@UAEPAXI@Z:PROC	; cv::CascadeClassifier::`vector deleting destructor'
EXTRN	__imp_?waitKey@cv@@YAHH@Z:PROC
EXTRN	__imp__printf:PROC
EXTRN	__imp_??0_InputArray@cv@@QAE@ABVMat@1@@Z:PROC
EXTRN	__imp_?getMat@_InputArray@cv@@UBE?AVMat@2@H@Z:PROC
EXTRN	__imp_?getMatVector@_InputArray@cv@@UBEXAAV?$vector@VMat@cv@@V?$allocator@VMat@cv@@@std@@@std@@@Z:PROC
EXTRN	__imp_?getGlBuffer@_InputArray@cv@@UBE?AVGlBuffer@2@XZ:PROC
EXTRN	__imp_?getGlTexture@_InputArray@cv@@UBE?AVGlTexture@2@XZ:PROC
EXTRN	__imp_?getGpuMat@_InputArray@cv@@UBE?AVGpuMat@gpu@2@XZ:PROC
EXTRN	__imp_?kind@_InputArray@cv@@UBEHXZ:PROC
EXTRN	__imp_?size@_InputArray@cv@@UBE?AV?$Size_@H@2@H@Z:PROC
EXTRN	__imp_?total@_InputArray@cv@@UBEIH@Z:PROC
EXTRN	__imp_?type@_InputArray@cv@@UBEHH@Z:PROC
EXTRN	__imp_?depth@_InputArray@cv@@UBEHH@Z:PROC
EXTRN	__imp_?channels@_InputArray@cv@@UBEHH@Z:PROC
EXTRN	__imp_?empty@_InputArray@cv@@UBE_NXZ:PROC
EXTRN	??_7type_info@@6B@:QWORD			; type_info::`vftable'
EXTRN	__imp_??0_OutputArray@cv@@QAE@AAVMat@1@@Z:PROC
EXTRN	__imp_?copySize@Mat@cv@@QAEXABV12@@Z:PROC
EXTRN	__imp_?fastFree@cv@@YAXPAX@Z:PROC
EXTRN	__imp_?deallocate@Mat@cv@@QAEXXZ:PROC
EXTRN	__imp_?_interlockedExchangeAdd@cv@@YAHPAHH@Z:PROC
EXTRN	__imp_?inRange@cv@@YAXABV_InputArray@1@00ABV_OutputArray@1@@Z:PROC
EXTRN	__imp_?getStructuringElement@cv@@YA?AVMat@1@HV?$Size_@H@1@V?$Point_@H@1@@Z:PROC
EXTRN	__imp_?erode@cv@@YAXABV_InputArray@1@ABV_OutputArray@1@0V?$Point_@H@1@HHABV?$Scalar_@N@1@@Z:PROC
EXTRN	__imp_?dilate@cv@@YAXABV_InputArray@1@ABV_OutputArray@1@0V?$Point_@H@1@HHABV?$Scalar_@N@1@@Z:PROC
EXTRN	__imp_?cvtColor@cv@@YAXABV_InputArray@1@ABV_OutputArray@1@HH@Z:PROC
EXTRN	_atexit:PROC
EXTRN	__imp_??3@YAXPAX@Z:PROC
_signID	DQ	01H DUP (?)
_axisValue DQ	01H DUP (?)
?MAX_OBJECT_AREA@@3HA DD 01H DUP (?)			; MAX_OBJECT_AREA
;	COMDAT ??_7CascadeClassifier@cv@@6B@
CONST	SEGMENT
??_7CascadeClassifier@cv@@6B@ DD FLAT:??_R4CascadeClassifier@cv@@6B@ ; cv::CascadeClassifier::`vftable'
	DD	FLAT:??_ECascadeClassifier@cv@@UAEPAXI@Z
	DD	FLAT:?empty@CascadeClassifier@cv@@UBE_NXZ
	DD	FLAT:?read@CascadeClassifier@cv@@UAE_NABVFileNode@2@@Z
	DD	FLAT:?detectMultiScale@CascadeClassifier@cv@@UAEXABVMat@2@AAV?$vector@V?$Rect_@H@cv@@V?$allocator@V?$Rect_@H@cv@@@std@@@std@@AAV?$vector@HV?$allocator@H@std@@@5@AAV?$vector@NV?$allocator@N@std@@@5@NHHV?$Size_@H@2@4_N@Z
	DD	FLAT:?detectMultiScale@CascadeClassifier@cv@@UAEXABVMat@2@AAV?$vector@V?$Rect_@H@cv@@V?$allocator@V?$Rect_@H@cv@@@std@@@std@@NHHV?$Size_@H@2@2@Z
	DD	FLAT:?getOriginalWindowSize@CascadeClassifier@cv@@UBE?AV?$Size_@H@2@XZ
	DD	FLAT:?detectSingleScale@CascadeClassifier@cv@@MAE_NABVMat@2@HV?$Size_@H@2@HHNAAV?$vector@V?$Rect_@H@cv@@V?$allocator@V?$Rect_@H@cv@@@std@@@std@@AAV?$vector@HV?$allocator@H@std@@@6@AAV?$vector@NV?$allocator@N@std@@@6@_N@Z
	DD	FLAT:?runAt@CascadeClassifier@cv@@MAEHAAV?$Ptr@VFeatureEvaluator@cv@@@2@V?$Point_@H@2@AAN@Z
CONST	ENDS
;	COMDAT ??_R4CascadeClassifier@cv@@6B@
rdata$r	SEGMENT
??_R4CascadeClassifier@cv@@6B@ DD 00H			; cv::CascadeClassifier::`RTTI Complete Object Locator'
	DD	00H
	DD	00H
	DD	FLAT:??_R0?AVCascadeClassifier@cv@@@8
	DD	FLAT:??_R3CascadeClassifier@cv@@8
rdata$r	ENDS
;	COMDAT ??_R3CascadeClassifier@cv@@8
rdata$r	SEGMENT
??_R3CascadeClassifier@cv@@8 DD 00H			; cv::CascadeClassifier::`RTTI Class Hierarchy Descriptor'
	DD	00H
	DD	01H
	DD	FLAT:??_R2CascadeClassifier@cv@@8
rdata$r	ENDS
;	COMDAT ??_R2CascadeClassifier@cv@@8
rdata$r	SEGMENT
??_R2CascadeClassifier@cv@@8 DD FLAT:??_R1A@?0A@EA@CascadeClassifier@cv@@8 ; cv::CascadeClassifier::`RTTI Base Class Array'
rdata$r	ENDS
;	COMDAT ??_R1A@?0A@EA@CascadeClassifier@cv@@8
rdata$r	SEGMENT
??_R1A@?0A@EA@CascadeClassifier@cv@@8 DD FLAT:??_R0?AVCascadeClassifier@cv@@@8 ; cv::CascadeClassifier::`RTTI Base Class Descriptor at (0,-1,0,64)'
	DD	00H
	DD	00H
	DD	0ffffffffH
	DD	00H
	DD	040H
	DD	FLAT:??_R3CascadeClassifier@cv@@8
rdata$r	ENDS
;	COMDAT ??_R0?AVCascadeClassifier@cv@@@8
_DATA	SEGMENT
??_R0?AVCascadeClassifier@cv@@@8 DD FLAT:??_7type_info@@6B@ ; cv::CascadeClassifier `RTTI Type Descriptor'
	DD	00H
	DB	'.?AVCascadeClassifier@cv@@', 00H
_DATA	ENDS
;	COMDAT ??_7_OutputArray@cv@@6B@
CONST	SEGMENT
??_7_OutputArray@cv@@6B@ DD FLAT:??_R4_OutputArray@cv@@6B@ ; cv::_OutputArray::`vftable'
	DD	FLAT:?getMat@_InputArray@cv@@UBE?AVMat@2@H@Z
	DD	FLAT:?getMatVector@_InputArray@cv@@UBEXAAV?$vector@VMat@cv@@V?$allocator@VMat@cv@@@std@@@std@@@Z
	DD	FLAT:?getGlBuffer@_InputArray@cv@@UBE?AVGlBuffer@2@XZ
	DD	FLAT:?getGlTexture@_InputArray@cv@@UBE?AVGlTexture@2@XZ
	DD	FLAT:?getGpuMat@_InputArray@cv@@UBE?AVGpuMat@gpu@2@XZ
	DD	FLAT:?kind@_InputArray@cv@@UBEHXZ
	DD	FLAT:?size@_InputArray@cv@@UBE?AV?$Size_@H@2@H@Z
	DD	FLAT:?total@_InputArray@cv@@UBEIH@Z
	DD	FLAT:?type@_InputArray@cv@@UBEHH@Z
	DD	FLAT:?depth@_InputArray@cv@@UBEHH@Z
	DD	FLAT:?channels@_InputArray@cv@@UBEHH@Z
	DD	FLAT:?empty@_InputArray@cv@@UBE_NXZ
	DD	FLAT:?fixedSize@_OutputArray@cv@@UBE_NXZ
	DD	FLAT:?fixedType@_OutputArray@cv@@UBE_NXZ
	DD	FLAT:?needed@_OutputArray@cv@@UBE_NXZ
	DD	FLAT:?getMatRef@_OutputArray@cv@@UBEAAVMat@2@H@Z
	DD	FLAT:?create@_OutputArray@cv@@UBEXHPBHHH_NH@Z
	DD	FLAT:?create@_OutputArray@cv@@UBEXHHHH_NH@Z
	DD	FLAT:?create@_OutputArray@cv@@UBEXV?$Size_@H@2@HH_NH@Z
	DD	FLAT:?release@_OutputArray@cv@@UBEXXZ
	DD	FLAT:?clear@_OutputArray@cv@@UBEXXZ
CONST	ENDS
;	COMDAT ??_R4_OutputArray@cv@@6B@
rdata$r	SEGMENT
??_R4_OutputArray@cv@@6B@ DD 00H			; cv::_OutputArray::`RTTI Complete Object Locator'
	DD	00H
	DD	00H
	DD	FLAT:??_R0?AV_OutputArray@cv@@@8
	DD	FLAT:??_R3_OutputArray@cv@@8
rdata$r	ENDS
;	COMDAT ??_R3_OutputArray@cv@@8
rdata$r	SEGMENT
??_R3_OutputArray@cv@@8 DD 00H				; cv::_OutputArray::`RTTI Class Hierarchy Descriptor'
	DD	00H
	DD	02H
	DD	FLAT:??_R2_OutputArray@cv@@8
rdata$r	ENDS
;	COMDAT ??_R2_OutputArray@cv@@8
rdata$r	SEGMENT
??_R2_OutputArray@cv@@8 DD FLAT:??_R1A@?0A@EA@_OutputArray@cv@@8 ; cv::_OutputArray::`RTTI Base Class Array'
	DD	FLAT:??_R1A@?0A@EA@_InputArray@cv@@8
rdata$r	ENDS
;	COMDAT ??_R1A@?0A@EA@_OutputArray@cv@@8
rdata$r	SEGMENT
??_R1A@?0A@EA@_OutputArray@cv@@8 DD FLAT:??_R0?AV_OutputArray@cv@@@8 ; cv::_OutputArray::`RTTI Base Class Descriptor at (0,-1,0,64)'
	DD	01H
	DD	00H
	DD	0ffffffffH
	DD	00H
	DD	040H
	DD	FLAT:??_R3_OutputArray@cv@@8
rdata$r	ENDS
;	COMDAT ??_R0?AV_OutputArray@cv@@@8
_DATA	SEGMENT
??_R0?AV_OutputArray@cv@@@8 DD FLAT:??_7type_info@@6B@	; cv::_OutputArray `RTTI Type Descriptor'
	DD	00H
	DB	'.?AV_OutputArray@cv@@', 00H
_DATA	ENDS
;	COMDAT ??_7_InputArray@cv@@6B@
CONST	SEGMENT
??_7_InputArray@cv@@6B@ DD FLAT:??_R4_InputArray@cv@@6B@ ; cv::_InputArray::`vftable'
	DD	FLAT:?getMat@_InputArray@cv@@UBE?AVMat@2@H@Z
	DD	FLAT:?getMatVector@_InputArray@cv@@UBEXAAV?$vector@VMat@cv@@V?$allocator@VMat@cv@@@std@@@std@@@Z
	DD	FLAT:?getGlBuffer@_InputArray@cv@@UBE?AVGlBuffer@2@XZ
	DD	FLAT:?getGlTexture@_InputArray@cv@@UBE?AVGlTexture@2@XZ
	DD	FLAT:?getGpuMat@_InputArray@cv@@UBE?AVGpuMat@gpu@2@XZ
	DD	FLAT:?kind@_InputArray@cv@@UBEHXZ
	DD	FLAT:?size@_InputArray@cv@@UBE?AV?$Size_@H@2@H@Z
	DD	FLAT:?total@_InputArray@cv@@UBEIH@Z
	DD	FLAT:?type@_InputArray@cv@@UBEHH@Z
	DD	FLAT:?depth@_InputArray@cv@@UBEHH@Z
	DD	FLAT:?channels@_InputArray@cv@@UBEHH@Z
	DD	FLAT:?empty@_InputArray@cv@@UBE_NXZ
CONST	ENDS
;	COMDAT ??_R4_InputArray@cv@@6B@
rdata$r	SEGMENT
??_R4_InputArray@cv@@6B@ DD 00H				; cv::_InputArray::`RTTI Complete Object Locator'
	DD	00H
	DD	00H
	DD	FLAT:??_R0?AV_InputArray@cv@@@8
	DD	FLAT:??_R3_InputArray@cv@@8
rdata$r	ENDS
;	COMDAT ??_R3_InputArray@cv@@8
rdata$r	SEGMENT
??_R3_InputArray@cv@@8 DD 00H				; cv::_InputArray::`RTTI Class Hierarchy Descriptor'
	DD	00H
	DD	01H
	DD	FLAT:??_R2_InputArray@cv@@8
rdata$r	ENDS
;	COMDAT ??_R2_InputArray@cv@@8
rdata$r	SEGMENT
??_R2_InputArray@cv@@8 DD FLAT:??_R1A@?0A@EA@_InputArray@cv@@8 ; cv::_InputArray::`RTTI Base Class Array'
rdata$r	ENDS
;	COMDAT ??_R1A@?0A@EA@_InputArray@cv@@8
rdata$r	SEGMENT
??_R1A@?0A@EA@_InputArray@cv@@8 DD FLAT:??_R0?AV_InputArray@cv@@@8 ; cv::_InputArray::`RTTI Base Class Descriptor at (0,-1,0,64)'
	DD	00H
	DD	00H
	DD	0ffffffffH
	DD	00H
	DD	040H
	DD	FLAT:??_R3_InputArray@cv@@8
rdata$r	ENDS
;	COMDAT ??_R0?AV_InputArray@cv@@@8
_DATA	SEGMENT
??_R0?AV_InputArray@cv@@@8 DD FLAT:??_7type_info@@6B@	; cv::_InputArray `RTTI Type Descriptor'
	DD	00H
	DB	'.?AV_InputArray@cv@@', 00H
_DATA	ENDS
;	COMDAT ??_8?$basic_stringstream@DU?$char_traits@D@std@@V?$allocator@D@2@@std@@7B?$basic_ostream@DU?$char_traits@D@std@@@1@@
CONST	SEGMENT
??_8?$basic_stringstream@DU?$char_traits@D@std@@V?$allocator@D@2@@std@@7B?$basic_ostream@DU?$char_traits@D@std@@@1@@ DD 00H ; std::basic_stringstream<char,std::char_traits<char>,std::allocator<char> >::`vbtable'
	DD	050H
CONST	ENDS
;	COMDAT ??_8?$basic_stringstream@DU?$char_traits@D@std@@V?$allocator@D@2@@std@@7B?$basic_istream@DU?$char_traits@D@std@@@1@@
CONST	SEGMENT
??_8?$basic_stringstream@DU?$char_traits@D@std@@V?$allocator@D@2@@std@@7B?$basic_istream@DU?$char_traits@D@std@@@1@@ DD 00H ; std::basic_stringstream<char,std::char_traits<char>,std::allocator<char> >::`vbtable'
	DD	060H
CONST	ENDS
;	COMDAT ??_7?$basic_stringstream@DU?$char_traits@D@std@@V?$allocator@D@2@@std@@6B@
CONST	SEGMENT
??_7?$basic_stringstream@DU?$char_traits@D@std@@V?$allocator@D@2@@std@@6B@ DD FLAT:??_R4?$basic_stringstream@DU?$char_traits@D@std@@V?$allocator@D@2@@std@@6B@ ; std::basic_stringstream<char,std::char_traits<char>,std::allocator<char> >::`vftable'
	DD	FLAT:??_E?$basic_stringstream@DU?$char_traits@D@std@@V?$allocator@D@2@@std@@UAEPAXI@Z
CONST	ENDS
;	COMDAT ??_R4?$basic_stringstream@DU?$char_traits@D@std@@V?$allocator@D@2@@std@@6B@
rdata$r	SEGMENT
??_R4?$basic_stringstream@DU?$char_traits@D@std@@V?$allocator@D@2@@std@@6B@ DD 00H ; std::basic_stringstream<char,std::char_traits<char>,std::allocator<char> >::`RTTI Complete Object Locator'
	DD	060H
	DD	00H
	DD	FLAT:??_R0?AV?$basic_stringstream@DU?$char_traits@D@std@@V?$allocator@D@2@@std@@@8
	DD	FLAT:??_R3?$basic_stringstream@DU?$char_traits@D@std@@V?$allocator@D@2@@std@@8
rdata$r	ENDS
;	COMDAT ??_R3?$basic_stringstream@DU?$char_traits@D@std@@V?$allocator@D@2@@std@@8
rdata$r	SEGMENT
??_R3?$basic_stringstream@DU?$char_traits@D@std@@V?$allocator@D@2@@std@@8 DD 00H ; std::basic_stringstream<char,std::char_traits<char>,std::allocator<char> >::`RTTI Class Hierarchy Descriptor'
	DD	03H
	DD	0aH
	DD	FLAT:??_R2?$basic_stringstream@DU?$char_traits@D@std@@V?$allocator@D@2@@std@@8
rdata$r	ENDS
;	COMDAT ??_R2?$basic_stringstream@DU?$char_traits@D@std@@V?$allocator@D@2@@std@@8
rdata$r	SEGMENT
??_R2?$basic_stringstream@DU?$char_traits@D@std@@V?$allocator@D@2@@std@@8 DD FLAT:??_R1A@?0A@EA@?$basic_stringstream@DU?$char_traits@D@std@@V?$allocator@D@2@@std@@8 ; std::basic_stringstream<char,std::char_traits<char>,std::allocator<char> >::`RTTI Base Class Array'
	DD	FLAT:??_R1A@?0A@EA@?$basic_iostream@DU?$char_traits@D@std@@@std@@8
	DD	FLAT:??_R1A@?0A@EA@?$basic_istream@DU?$char_traits@D@std@@@std@@8
	DD	FLAT:??_R1A@A@3FA@?$basic_ios@DU?$char_traits@D@std@@@std@@8
	DD	FLAT:??_R1A@A@3EA@ios_base@std@@8
	DD	FLAT:??_R17A@3EA@?$_Iosb@H@std@@8
	DD	FLAT:??_R1BA@?0A@EA@?$basic_ostream@DU?$char_traits@D@std@@@std@@8
	DD	FLAT:??_R1A@A@3FA@?$basic_ios@DU?$char_traits@D@std@@@std@@8
	DD	FLAT:??_R1A@A@3EA@ios_base@std@@8
	DD	FLAT:??_R17A@3EA@?$_Iosb@H@std@@8
rdata$r	ENDS
;	COMDAT ??_R1A@?0A@EA@?$basic_iostream@DU?$char_traits@D@std@@@std@@8
rdata$r	SEGMENT
??_R1A@?0A@EA@?$basic_iostream@DU?$char_traits@D@std@@@std@@8 DD FLAT:??_R0?AV?$basic_iostream@DU?$char_traits@D@std@@@std@@@8 ; std::basic_iostream<char,std::char_traits<char> >::`RTTI Base Class Descriptor at (0,-1,0,64)'
	DD	08H
	DD	00H
	DD	0ffffffffH
	DD	00H
	DD	040H
	DD	FLAT:??_R3?$basic_iostream@DU?$char_traits@D@std@@@std@@8
rdata$r	ENDS
;	COMDAT ??_R3?$basic_iostream@DU?$char_traits@D@std@@@std@@8
rdata$r	SEGMENT
??_R3?$basic_iostream@DU?$char_traits@D@std@@@std@@8 DD 00H ; std::basic_iostream<char,std::char_traits<char> >::`RTTI Class Hierarchy Descriptor'
	DD	03H
	DD	09H
	DD	FLAT:??_R2?$basic_iostream@DU?$char_traits@D@std@@@std@@8
rdata$r	ENDS
;	COMDAT ??_R2?$basic_iostream@DU?$char_traits@D@std@@@std@@8
rdata$r	SEGMENT
??_R2?$basic_iostream@DU?$char_traits@D@std@@@std@@8 DD FLAT:??_R1A@?0A@EA@?$basic_iostream@DU?$char_traits@D@std@@@std@@8 ; std::basic_iostream<char,std::char_traits<char> >::`RTTI Base Class Array'
	DD	FLAT:??_R1A@?0A@EA@?$basic_istream@DU?$char_traits@D@std@@@std@@8
	DD	FLAT:??_R1A@A@3FA@?$basic_ios@DU?$char_traits@D@std@@@std@@8
	DD	FLAT:??_R1A@A@3EA@ios_base@std@@8
	DD	FLAT:??_R17A@3EA@?$_Iosb@H@std@@8
	DD	FLAT:??_R1BA@?0A@EA@?$basic_ostream@DU?$char_traits@D@std@@@std@@8
	DD	FLAT:??_R1A@A@3FA@?$basic_ios@DU?$char_traits@D@std@@@std@@8
	DD	FLAT:??_R1A@A@3EA@ios_base@std@@8
	DD	FLAT:??_R17A@3EA@?$_Iosb@H@std@@8
rdata$r	ENDS
;	COMDAT ??_R1BA@?0A@EA@?$basic_ostream@DU?$char_traits@D@std@@@std@@8
rdata$r	SEGMENT
??_R1BA@?0A@EA@?$basic_ostream@DU?$char_traits@D@std@@@std@@8 DD FLAT:??_R0?AV?$basic_ostream@DU?$char_traits@D@std@@@std@@@8 ; std::basic_ostream<char,std::char_traits<char> >::`RTTI Base Class Descriptor at (16,-1,0,64)'
	DD	03H
	DD	010H
	DD	0ffffffffH
	DD	00H
	DD	040H
	DD	FLAT:??_R3?$basic_ostream@DU?$char_traits@D@std@@@std@@8
rdata$r	ENDS
;	COMDAT ??_R3?$basic_ostream@DU?$char_traits@D@std@@@std@@8
rdata$r	SEGMENT
??_R3?$basic_ostream@DU?$char_traits@D@std@@@std@@8 DD 00H ; std::basic_ostream<char,std::char_traits<char> >::`RTTI Class Hierarchy Descriptor'
	DD	00H
	DD	04H
	DD	FLAT:??_R2?$basic_ostream@DU?$char_traits@D@std@@@std@@8
rdata$r	ENDS
;	COMDAT ??_R2?$basic_ostream@DU?$char_traits@D@std@@@std@@8
rdata$r	SEGMENT
??_R2?$basic_ostream@DU?$char_traits@D@std@@@std@@8 DD FLAT:??_R1A@?0A@EA@?$basic_ostream@DU?$char_traits@D@std@@@std@@8 ; std::basic_ostream<char,std::char_traits<char> >::`RTTI Base Class Array'
	DD	FLAT:??_R1A@A@3FA@?$basic_ios@DU?$char_traits@D@std@@@std@@8
	DD	FLAT:??_R1A@A@3EA@ios_base@std@@8
	DD	FLAT:??_R17A@3EA@?$_Iosb@H@std@@8
rdata$r	ENDS
;	COMDAT ??_R1A@?0A@EA@?$basic_ostream@DU?$char_traits@D@std@@@std@@8
rdata$r	SEGMENT
??_R1A@?0A@EA@?$basic_ostream@DU?$char_traits@D@std@@@std@@8 DD FLAT:??_R0?AV?$basic_ostream@DU?$char_traits@D@std@@@std@@@8 ; std::basic_ostream<char,std::char_traits<char> >::`RTTI Base Class Descriptor at (0,-1,0,64)'
	DD	03H
	DD	00H
	DD	0ffffffffH
	DD	00H
	DD	040H
	DD	FLAT:??_R3?$basic_ostream@DU?$char_traits@D@std@@@std@@8
rdata$r	ENDS
;	COMDAT ??_R0?AV?$basic_ostream@DU?$char_traits@D@std@@@std@@@8
_DATA	SEGMENT
??_R0?AV?$basic_ostream@DU?$char_traits@D@std@@@std@@@8 DD FLAT:??_7type_info@@6B@ ; std::basic_ostream<char,std::char_traits<char> > `RTTI Type Descriptor'
	DD	00H
	DB	'.?AV?$basic_ostream@DU?$char_traits@D@std@@@std@@', 00H
_DATA	ENDS
;	COMDAT ??_R1A@?0A@EA@?$basic_istream@DU?$char_traits@D@std@@@std@@8
rdata$r	SEGMENT
??_R1A@?0A@EA@?$basic_istream@DU?$char_traits@D@std@@@std@@8 DD FLAT:??_R0?AV?$basic_istream@DU?$char_traits@D@std@@@std@@@8 ; std::basic_istream<char,std::char_traits<char> >::`RTTI Base Class Descriptor at (0,-1,0,64)'
	DD	03H
	DD	00H
	DD	0ffffffffH
	DD	00H
	DD	040H
	DD	FLAT:??_R3?$basic_istream@DU?$char_traits@D@std@@@std@@8
rdata$r	ENDS
;	COMDAT ??_R3?$basic_istream@DU?$char_traits@D@std@@@std@@8
rdata$r	SEGMENT
??_R3?$basic_istream@DU?$char_traits@D@std@@@std@@8 DD 00H ; std::basic_istream<char,std::char_traits<char> >::`RTTI Class Hierarchy Descriptor'
	DD	00H
	DD	04H
	DD	FLAT:??_R2?$basic_istream@DU?$char_traits@D@std@@@std@@8
rdata$r	ENDS
;	COMDAT ??_R2?$basic_istream@DU?$char_traits@D@std@@@std@@8
rdata$r	SEGMENT
??_R2?$basic_istream@DU?$char_traits@D@std@@@std@@8 DD FLAT:??_R1A@?0A@EA@?$basic_istream@DU?$char_traits@D@std@@@std@@8 ; std::basic_istream<char,std::char_traits<char> >::`RTTI Base Class Array'
	DD	FLAT:??_R1A@A@3FA@?$basic_ios@DU?$char_traits@D@std@@@std@@8
	DD	FLAT:??_R1A@A@3EA@ios_base@std@@8
	DD	FLAT:??_R17A@3EA@?$_Iosb@H@std@@8
rdata$r	ENDS
;	COMDAT ??_R17A@3EA@?$_Iosb@H@std@@8
rdata$r	SEGMENT
??_R17A@3EA@?$_Iosb@H@std@@8 DD FLAT:??_R0?AV?$_Iosb@H@std@@@8 ; std::_Iosb<int>::`RTTI Base Class Descriptor at (8,0,4,64)'
	DD	00H
	DD	08H
	DD	00H
	DD	04H
	DD	040H
	DD	FLAT:??_R3?$_Iosb@H@std@@8
rdata$r	ENDS
;	COMDAT ??_R1A@A@3EA@ios_base@std@@8
rdata$r	SEGMENT
??_R1A@A@3EA@ios_base@std@@8 DD FLAT:??_R0?AVios_base@std@@@8 ; std::ios_base::`RTTI Base Class Descriptor at (0,0,4,64)'
	DD	01H
	DD	00H
	DD	00H
	DD	04H
	DD	040H
	DD	FLAT:??_R3ios_base@std@@8
rdata$r	ENDS
;	COMDAT ??_R1A@A@3FA@?$basic_ios@DU?$char_traits@D@std@@@std@@8
rdata$r	SEGMENT
??_R1A@A@3FA@?$basic_ios@DU?$char_traits@D@std@@@std@@8 DD FLAT:??_R0?AV?$basic_ios@DU?$char_traits@D@std@@@std@@@8 ; std::basic_ios<char,std::char_traits<char> >::`RTTI Base Class Descriptor at (0,0,4,80)'
	DD	02H
	DD	00H
	DD	00H
	DD	04H
	DD	050H
	DD	FLAT:??_R3?$basic_ios@DU?$char_traits@D@std@@@std@@8
rdata$r	ENDS
;	COMDAT ??_R3?$basic_ios@DU?$char_traits@D@std@@@std@@8
rdata$r	SEGMENT
??_R3?$basic_ios@DU?$char_traits@D@std@@@std@@8 DD 00H	; std::basic_ios<char,std::char_traits<char> >::`RTTI Class Hierarchy Descriptor'
	DD	00H
	DD	03H
	DD	FLAT:??_R2?$basic_ios@DU?$char_traits@D@std@@@std@@8
rdata$r	ENDS
;	COMDAT ??_R2?$basic_ios@DU?$char_traits@D@std@@@std@@8
rdata$r	SEGMENT
??_R2?$basic_ios@DU?$char_traits@D@std@@@std@@8 DD FLAT:??_R1A@?0A@EA@?$basic_ios@DU?$char_traits@D@std@@@std@@8 ; std::basic_ios<char,std::char_traits<char> >::`RTTI Base Class Array'
	DD	FLAT:??_R1A@?0A@EA@ios_base@std@@8
	DD	FLAT:??_R17?0A@EA@?$_Iosb@H@std@@8
rdata$r	ENDS
;	COMDAT ??_R1A@?0A@EA@ios_base@std@@8
rdata$r	SEGMENT
??_R1A@?0A@EA@ios_base@std@@8 DD FLAT:??_R0?AVios_base@std@@@8 ; std::ios_base::`RTTI Base Class Descriptor at (0,-1,0,64)'
	DD	01H
	DD	00H
	DD	0ffffffffH
	DD	00H
	DD	040H
	DD	FLAT:??_R3ios_base@std@@8
rdata$r	ENDS
;	COMDAT ??_R3ios_base@std@@8
rdata$r	SEGMENT
??_R3ios_base@std@@8 DD 00H				; std::ios_base::`RTTI Class Hierarchy Descriptor'
	DD	00H
	DD	02H
	DD	FLAT:??_R2ios_base@std@@8
rdata$r	ENDS
;	COMDAT ??_R2ios_base@std@@8
rdata$r	SEGMENT
??_R2ios_base@std@@8 DD FLAT:??_R1A@?0A@EA@ios_base@std@@8 ; std::ios_base::`RTTI Base Class Array'
	DD	FLAT:??_R17?0A@EA@?$_Iosb@H@std@@8
rdata$r	ENDS
;	COMDAT ??_R17?0A@EA@?$_Iosb@H@std@@8
rdata$r	SEGMENT
??_R17?0A@EA@?$_Iosb@H@std@@8 DD FLAT:??_R0?AV?$_Iosb@H@std@@@8 ; std::_Iosb<int>::`RTTI Base Class Descriptor at (8,-1,0,64)'
	DD	00H
	DD	08H
	DD	0ffffffffH
	DD	00H
	DD	040H
	DD	FLAT:??_R3?$_Iosb@H@std@@8
rdata$r	ENDS
;	COMDAT ??_R3?$_Iosb@H@std@@8
rdata$r	SEGMENT
??_R3?$_Iosb@H@std@@8 DD 00H				; std::_Iosb<int>::`RTTI Class Hierarchy Descriptor'
	DD	00H
	DD	01H
	DD	FLAT:??_R2?$_Iosb@H@std@@8
rdata$r	ENDS
;	COMDAT ??_R2?$_Iosb@H@std@@8
rdata$r	SEGMENT
??_R2?$_Iosb@H@std@@8 DD FLAT:??_R1A@?0A@EA@?$_Iosb@H@std@@8 ; std::_Iosb<int>::`RTTI Base Class Array'
rdata$r	ENDS
;	COMDAT ??_R1A@?0A@EA@?$_Iosb@H@std@@8
rdata$r	SEGMENT
??_R1A@?0A@EA@?$_Iosb@H@std@@8 DD FLAT:??_R0?AV?$_Iosb@H@std@@@8 ; std::_Iosb<int>::`RTTI Base Class Descriptor at (0,-1,0,64)'
	DD	00H
	DD	00H
	DD	0ffffffffH
	DD	00H
	DD	040H
	DD	FLAT:??_R3?$_Iosb@H@std@@8
rdata$r	ENDS
;	COMDAT ??_R0?AV?$_Iosb@H@std@@@8
_DATA	SEGMENT
??_R0?AV?$_Iosb@H@std@@@8 DD FLAT:??_7type_info@@6B@	; std::_Iosb<int> `RTTI Type Descriptor'
	DD	00H
	DB	'.?AV?$_Iosb@H@std@@', 00H
_DATA	ENDS
;	COMDAT ??_R0?AVios_base@std@@@8
_DATA	SEGMENT
??_R0?AVios_base@std@@@8 DD FLAT:??_7type_info@@6B@	; std::ios_base `RTTI Type Descriptor'
	DD	00H
	DB	'.?AVios_base@std@@', 00H
_DATA	ENDS
;	COMDAT ??_R1A@?0A@EA@?$basic_ios@DU?$char_traits@D@std@@@std@@8
rdata$r	SEGMENT
??_R1A@?0A@EA@?$basic_ios@DU?$char_traits@D@std@@@std@@8 DD FLAT:??_R0?AV?$basic_ios@DU?$char_traits@D@std@@@std@@@8 ; std::basic_ios<char,std::char_traits<char> >::`RTTI Base Class Descriptor at (0,-1,0,64)'
	DD	02H
	DD	00H
	DD	0ffffffffH
	DD	00H
	DD	040H
	DD	FLAT:??_R3?$basic_ios@DU?$char_traits@D@std@@@std@@8
rdata$r	ENDS
;	COMDAT ??_R0?AV?$basic_ios@DU?$char_traits@D@std@@@std@@@8
_DATA	SEGMENT
??_R0?AV?$basic_ios@DU?$char_traits@D@std@@@std@@@8 DD FLAT:??_7type_info@@6B@ ; std::basic_ios<char,std::char_traits<char> > `RTTI Type Descriptor'
	DD	00H
	DB	'.?AV?$basic_ios@DU?$char_traits@D@std@@@std@@', 00H
_DATA	ENDS
;	COMDAT ??_R0?AV?$basic_istream@DU?$char_traits@D@std@@@std@@@8
_DATA	SEGMENT
??_R0?AV?$basic_istream@DU?$char_traits@D@std@@@std@@@8 DD FLAT:??_7type_info@@6B@ ; std::basic_istream<char,std::char_traits<char> > `RTTI Type Descriptor'
	DD	00H
	DB	'.?AV?$basic_istream@DU?$char_traits@D@std@@@std@@', 00H
_DATA	ENDS
;	COMDAT ??_R0?AV?$basic_iostream@DU?$char_traits@D@std@@@std@@@8
_DATA	SEGMENT
??_R0?AV?$basic_iostream@DU?$char_traits@D@std@@@std@@@8 DD FLAT:??_7type_info@@6B@ ; std::basic_iostream<char,std::char_traits<char> > `RTTI Type Descriptor'
	DD	00H
	DB	'.?AV?$basic_iostream@DU?$char_traits@D@std@@@std@@', 00H
_DATA	ENDS
;	COMDAT ??_R1A@?0A@EA@?$basic_stringstream@DU?$char_traits@D@std@@V?$allocator@D@2@@std@@8
rdata$r	SEGMENT
??_R1A@?0A@EA@?$basic_stringstream@DU?$char_traits@D@std@@V?$allocator@D@2@@std@@8 DD FLAT:??_R0?AV?$basic_stringstream@DU?$char_traits@D@std@@V?$allocator@D@2@@std@@@8 ; std::basic_stringstream<char,std::char_traits<char>,std::allocator<char> >::`RTTI Base Class Descriptor at (0,-1,0,64)'
	DD	09H
	DD	00H
	DD	0ffffffffH
	DD	00H
	DD	040H
	DD	FLAT:??_R3?$basic_stringstream@DU?$char_traits@D@std@@V?$allocator@D@2@@std@@8
rdata$r	ENDS
;	COMDAT ??_R0?AV?$basic_stringstream@DU?$char_traits@D@std@@V?$allocator@D@2@@std@@@8
_DATA	SEGMENT
??_R0?AV?$basic_stringstream@DU?$char_traits@D@std@@V?$allocator@D@2@@std@@@8 DD FLAT:??_7type_info@@6B@ ; std::basic_stringstream<char,std::char_traits<char>,std::allocator<char> > `RTTI Type Descriptor'
	DD	00H
	DB	'.?AV?$basic_stringstream@DU?$char_traits@D@std@@V?$alloc'
	DB	'ator@D@2@@std@@', 00H
_DATA	ENDS
;	COMDAT ??_7?$basic_stringbuf@DU?$char_traits@D@std@@V?$allocator@D@2@@std@@6B@
CONST	SEGMENT
??_7?$basic_stringbuf@DU?$char_traits@D@std@@V?$allocator@D@2@@std@@6B@ DD FLAT:??_R4?$basic_stringbuf@DU?$char_traits@D@std@@V?$allocator@D@2@@std@@6B@ ; std::basic_stringbuf<char,std::char_traits<char>,std::allocator<char> >::`vftable'
	DD	FLAT:??_E?$basic_stringbuf@DU?$char_traits@D@std@@V?$allocator@D@2@@std@@UAEPAXI@Z
	DD	FLAT:?_Lock@?$basic_streambuf@DU?$char_traits@D@std@@@std@@UAEXXZ
	DD	FLAT:?_Unlock@?$basic_streambuf@DU?$char_traits@D@std@@@std@@UAEXXZ
	DD	FLAT:?overflow@?$basic_stringbuf@DU?$char_traits@D@std@@V?$allocator@D@2@@std@@MAEHH@Z
	DD	FLAT:?pbackfail@?$basic_stringbuf@DU?$char_traits@D@std@@V?$allocator@D@2@@std@@MAEHH@Z
	DD	FLAT:?showmanyc@?$basic_streambuf@DU?$char_traits@D@std@@@std@@MAE_JXZ
	DD	FLAT:?underflow@?$basic_stringbuf@DU?$char_traits@D@std@@V?$allocator@D@2@@std@@MAEHXZ
	DD	FLAT:?uflow@?$basic_streambuf@DU?$char_traits@D@std@@@std@@MAEHXZ
	DD	FLAT:?xsgetn@?$basic_streambuf@DU?$char_traits@D@std@@@std@@MAE_JPAD_J@Z
	DD	FLAT:?xsputn@?$basic_streambuf@DU?$char_traits@D@std@@@std@@MAE_JPBD_J@Z
	DD	FLAT:?seekoff@?$basic_stringbuf@DU?$char_traits@D@std@@V?$allocator@D@2@@std@@MAE?AV?$fpos@H@2@_JHH@Z
	DD	FLAT:?seekpos@?$basic_stringbuf@DU?$char_traits@D@std@@V?$allocator@D@2@@std@@MAE?AV?$fpos@H@2@V32@H@Z
	DD	FLAT:?setbuf@?$basic_streambuf@DU?$char_traits@D@std@@@std@@MAEPAV12@PAD_J@Z
	DD	FLAT:?sync@?$basic_streambuf@DU?$char_traits@D@std@@@std@@MAEHXZ
	DD	FLAT:?imbue@?$basic_streambuf@DU?$char_traits@D@std@@@std@@MAEXABVlocale@2@@Z
CONST	ENDS
;	COMDAT ??_R4?$basic_stringbuf@DU?$char_traits@D@std@@V?$allocator@D@2@@std@@6B@
rdata$r	SEGMENT
??_R4?$basic_stringbuf@DU?$char_traits@D@std@@V?$allocator@D@2@@std@@6B@ DD 00H ; std::basic_stringbuf<char,std::char_traits<char>,std::allocator<char> >::`RTTI Complete Object Locator'
	DD	00H
	DD	00H
	DD	FLAT:??_R0?AV?$basic_stringbuf@DU?$char_traits@D@std@@V?$allocator@D@2@@std@@@8
	DD	FLAT:??_R3?$basic_stringbuf@DU?$char_traits@D@std@@V?$allocator@D@2@@std@@8
rdata$r	ENDS
;	COMDAT ??_R3?$basic_stringbuf@DU?$char_traits@D@std@@V?$allocator@D@2@@std@@8
rdata$r	SEGMENT
??_R3?$basic_stringbuf@DU?$char_traits@D@std@@V?$allocator@D@2@@std@@8 DD 00H ; std::basic_stringbuf<char,std::char_traits<char>,std::allocator<char> >::`RTTI Class Hierarchy Descriptor'
	DD	00H
	DD	02H
	DD	FLAT:??_R2?$basic_stringbuf@DU?$char_traits@D@std@@V?$allocator@D@2@@std@@8
rdata$r	ENDS
;	COMDAT ??_R2?$basic_stringbuf@DU?$char_traits@D@std@@V?$allocator@D@2@@std@@8
rdata$r	SEGMENT
??_R2?$basic_stringbuf@DU?$char_traits@D@std@@V?$allocator@D@2@@std@@8 DD FLAT:??_R1A@?0A@EA@?$basic_stringbuf@DU?$char_traits@D@std@@V?$allocator@D@2@@std@@8 ; std::basic_stringbuf<char,std::char_traits<char>,std::allocator<char> >::`RTTI Base Class Array'
	DD	FLAT:??_R1A@?0A@EA@?$basic_streambuf@DU?$char_traits@D@std@@@std@@8
rdata$r	ENDS
;	COMDAT ??_R1A@?0A@EA@?$basic_streambuf@DU?$char_traits@D@std@@@std@@8
rdata$r	SEGMENT
??_R1A@?0A@EA@?$basic_streambuf@DU?$char_traits@D@std@@@std@@8 DD FLAT:??_R0?AV?$basic_streambuf@DU?$char_traits@D@std@@@std@@@8 ; std::basic_streambuf<char,std::char_traits<char> >::`RTTI Base Class Descriptor at (0,-1,0,64)'
	DD	00H
	DD	00H
	DD	0ffffffffH
	DD	00H
	DD	040H
	DD	FLAT:??_R3?$basic_streambuf@DU?$char_traits@D@std@@@std@@8
rdata$r	ENDS
;	COMDAT ??_R3?$basic_streambuf@DU?$char_traits@D@std@@@std@@8
rdata$r	SEGMENT
??_R3?$basic_streambuf@DU?$char_traits@D@std@@@std@@8 DD 00H ; std::basic_streambuf<char,std::char_traits<char> >::`RTTI Class Hierarchy Descriptor'
	DD	00H
	DD	01H
	DD	FLAT:??_R2?$basic_streambuf@DU?$char_traits@D@std@@@std@@8
rdata$r	ENDS
;	COMDAT ??_R2?$basic_streambuf@DU?$char_traits@D@std@@@std@@8
rdata$r	SEGMENT
??_R2?$basic_streambuf@DU?$char_traits@D@std@@@std@@8 DD FLAT:??_R1A@?0A@EA@?$basic_streambuf@DU?$char_traits@D@std@@@std@@8 ; std::basic_streambuf<char,std::char_traits<char> >::`RTTI Base Class Array'
rdata$r	ENDS
;	COMDAT ??_R0?AV?$basic_streambuf@DU?$char_traits@D@std@@@std@@@8
_DATA	SEGMENT
??_R0?AV?$basic_streambuf@DU?$char_traits@D@std@@@std@@@8 DD FLAT:??_7type_info@@6B@ ; std::basic_streambuf<char,std::char_traits<char> > `RTTI Type Descriptor'
	DD	00H
	DB	'.?AV?$basic_streambuf@DU?$char_traits@D@std@@@std@@', 00H
_DATA	ENDS
;	COMDAT ??_R1A@?0A@EA@?$basic_stringbuf@DU?$char_traits@D@std@@V?$allocator@D@2@@std@@8
rdata$r	SEGMENT
??_R1A@?0A@EA@?$basic_stringbuf@DU?$char_traits@D@std@@V?$allocator@D@2@@std@@8 DD FLAT:??_R0?AV?$basic_stringbuf@DU?$char_traits@D@std@@V?$allocator@D@2@@std@@@8 ; std::basic_stringbuf<char,std::char_traits<char>,std::allocator<char> >::`RTTI Base Class Descriptor at (0,-1,0,64)'
	DD	01H
	DD	00H
	DD	0ffffffffH
	DD	00H
	DD	040H
	DD	FLAT:??_R3?$basic_stringbuf@DU?$char_traits@D@std@@V?$allocator@D@2@@std@@8
rdata$r	ENDS
;	COMDAT ??_R0?AV?$basic_stringbuf@DU?$char_traits@D@std@@V?$allocator@D@2@@std@@@8
_DATA	SEGMENT
??_R0?AV?$basic_stringbuf@DU?$char_traits@D@std@@V?$allocator@D@2@@std@@@8 DD FLAT:??_7type_info@@6B@ ; std::basic_stringbuf<char,std::char_traits<char>,std::allocator<char> > `RTTI Type Descriptor'
	DD	00H
	DB	'.?AV?$basic_stringbuf@DU?$char_traits@D@std@@V?$allocato'
	DB	'r@D@2@@std@@', 00H
_DATA	ENDS
;	COMDAT ??_7bad_alloc@std@@6B@
CONST	SEGMENT
??_7bad_alloc@std@@6B@ DD FLAT:??_R4bad_alloc@std@@6B@	; std::bad_alloc::`vftable'
	DD	FLAT:??_Ebad_alloc@std@@UAEPAXI@Z
	DD	FLAT:?what@exception@std@@UBEPBDXZ
CONST	ENDS
;	COMDAT ??_R4bad_alloc@std@@6B@
rdata$r	SEGMENT
??_R4bad_alloc@std@@6B@ DD 00H				; std::bad_alloc::`RTTI Complete Object Locator'
	DD	00H
	DD	00H
	DD	FLAT:??_R0?AVbad_alloc@std@@@8
	DD	FLAT:??_R3bad_alloc@std@@8
rdata$r	ENDS
;	COMDAT ??_R3bad_alloc@std@@8
rdata$r	SEGMENT
??_R3bad_alloc@std@@8 DD 00H				; std::bad_alloc::`RTTI Class Hierarchy Descriptor'
	DD	00H
	DD	02H
	DD	FLAT:??_R2bad_alloc@std@@8
rdata$r	ENDS
;	COMDAT ??_R2bad_alloc@std@@8
rdata$r	SEGMENT
??_R2bad_alloc@std@@8 DD FLAT:??_R1A@?0A@EA@bad_alloc@std@@8 ; std::bad_alloc::`RTTI Base Class Array'
	DD	FLAT:??_R1A@?0A@EA@exception@std@@8
rdata$r	ENDS
;	COMDAT ??_R1A@?0A@EA@exception@std@@8
rdata$r	SEGMENT
??_R1A@?0A@EA@exception@std@@8 DD FLAT:??_R0?AVexception@std@@@8 ; std::exception::`RTTI Base Class Descriptor at (0,-1,0,64)'
	DD	00H
	DD	00H
	DD	0ffffffffH
	DD	00H
	DD	040H
	DD	FLAT:??_R3exception@std@@8
rdata$r	ENDS
;	COMDAT ??_R3exception@std@@8
rdata$r	SEGMENT
??_R3exception@std@@8 DD 00H				; std::exception::`RTTI Class Hierarchy Descriptor'
	DD	00H
	DD	01H
	DD	FLAT:??_R2exception@std@@8
rdata$r	ENDS
;	COMDAT ??_R2exception@std@@8
rdata$r	SEGMENT
??_R2exception@std@@8 DD FLAT:??_R1A@?0A@EA@exception@std@@8 ; std::exception::`RTTI Base Class Array'
rdata$r	ENDS
;	COMDAT ??_R1A@?0A@EA@bad_alloc@std@@8
rdata$r	SEGMENT
??_R1A@?0A@EA@bad_alloc@std@@8 DD FLAT:??_R0?AVbad_alloc@std@@@8 ; std::bad_alloc::`RTTI Base Class Descriptor at (0,-1,0,64)'
	DD	01H
	DD	00H
	DD	0ffffffffH
	DD	00H
	DD	040H
	DD	FLAT:??_R3bad_alloc@std@@8
rdata$r	ENDS
;	COMDAT __TI2?AVbad_alloc@std@@
xdata$x	SEGMENT
__TI2?AVbad_alloc@std@@ DD 00H
	DD	FLAT:??1bad_alloc@std@@UAE@XZ
	DD	00H
	DD	FLAT:__CTA2?AVbad_alloc@std@@
xdata$x	ENDS
;	COMDAT __CTA2?AVbad_alloc@std@@
xdata$x	SEGMENT
__CTA2?AVbad_alloc@std@@ DD 02H
	DD	FLAT:__CT??_R0?AVbad_alloc@std@@@8??0bad_alloc@std@@QAE@ABV01@@Z12
	DD	FLAT:__CT??_R0?AVexception@std@@@8??0exception@std@@QAE@ABV01@@Z12
xdata$x	ENDS
;	COMDAT __CT??_R0?AVbad_alloc@std@@@8??0bad_alloc@std@@QAE@ABV01@@Z12
xdata$x	SEGMENT
__CT??_R0?AVbad_alloc@std@@@8??0bad_alloc@std@@QAE@ABV01@@Z12 DD 00H
	DD	FLAT:??_R0?AVbad_alloc@std@@@8
	DD	00H
	DD	0ffffffffH
	ORG $+4
	DD	0cH
	DD	FLAT:??0bad_alloc@std@@QAE@ABV01@@Z
xdata$x	ENDS
;	COMDAT ??_R0?AVbad_alloc@std@@@8
_DATA	SEGMENT
??_R0?AVbad_alloc@std@@@8 DD FLAT:??_7type_info@@6B@	; std::bad_alloc `RTTI Type Descriptor'
	DD	00H
	DB	'.?AVbad_alloc@std@@', 00H
_DATA	ENDS
;	COMDAT ?_Stz@?$fpos@H@std@@0HB
CONST	SEGMENT
?_Stz@?$fpos@H@std@@0HB DD 00H				; std::fpos<int>::_Stz
CONST	ENDS
;	COMDAT ?npos@?$basic_string@DU?$char_traits@D@std@@V?$allocator@D@2@@std@@2IB
CONST	SEGMENT
?npos@?$basic_string@DU?$char_traits@D@std@@V?$allocator@D@2@@std@@2IB DD 0ffffffffH ; std::basic_string<char,std::char_traits<char>,std::allocator<char> >::npos
CONST	ENDS
;	COMDAT ??_C@_0BA@JFNIOLAK@string?5too?5long?$AA@
CONST	SEGMENT
??_C@_0BA@JFNIOLAK@string?5too?5long?$AA@ DB 'string too long', 00H ; `string'
CONST	ENDS
;	COMDAT ??_C@_0BD@OLBABOEK@vector?$DMT?$DO?5too?5long?$AA@
CONST	SEGMENT
??_C@_0BD@OLBABOEK@vector?$DMT?$DO?5too?5long?$AA@ DB 'vector<T> too long'
	DB	00H						; `string'
CONST	ENDS
;	COMDAT ??_C@_0BI@CFPLBAOH@invalid?5string?5position?$AA@
CONST	SEGMENT
??_C@_0BI@CFPLBAOH@invalid?5string?5position?$AA@ DB 'invalid string posi'
	DB	'tion', 00H					; `string'
CONST	ENDS
;	COMDAT ??_C@_0BB@HGDFHEIC@Axis?5value?5?$DN?5?$CFd?6?$AA@
CONST	SEGMENT
??_C@_0BB@HGDFHEIC@Axis?5value?5?$DN?5?$CFd?6?$AA@ DB 'Axis value = %d', 0aH
	DB	00H						; `string'
CONST	ENDS
;	COMDAT ??_C@_0BH@OOLANKBA@classifier_disable?4xml?$AA@
CONST	SEGMENT
??_C@_0BH@OOLANKBA@classifier_disable?4xml?$AA@ DB 'classifier_disable.xm'
	DB	'l', 00H					; `string'
CONST	ENDS
;	COMDAT ??_C@_0BG@GANHPLLF@classifier_enable?4xml?$AA@
CONST	SEGMENT
??_C@_0BG@GANHPLLF@classifier_enable?4xml?$AA@ DB 'classifier_enable.xml', 00H ; `string'
CONST	ENDS
;	COMDAT ??_C@_0O@ENPJBMMB@Detecting?5?4?4?4?$AA@
CONST	SEGMENT
??_C@_0O@ENPJBMMB@Detecting?5?4?4?4?$AA@ DB 'Detecting ...', 00H ; `string'
CONST	ENDS
;	COMDAT __CT??_R0?AVexception@std@@@8??0exception@std@@QAE@ABV01@@Z12
xdata$x	SEGMENT
__CT??_R0?AVexception@std@@@8??0exception@std@@QAE@ABV01@@Z12 DD 00H
	DD	FLAT:??_R0?AVexception@std@@@8
	DD	00H
	DD	0ffffffffH
	ORG $+4
	DD	0cH
	DD	FLAT:??0exception@std@@QAE@ABV01@@Z
xdata$x	ENDS
;	COMDAT ??_R0?AVexception@std@@@8
_DATA	SEGMENT
??_R0?AVexception@std@@@8 DD FLAT:??_7type_info@@6B@	; std::exception `RTTI Type Descriptor'
	DD	00H
	DB	'.?AVexception@std@@', 00H
; Function compile flags: /Ogtp
; File c:\programs & apps\visual studio 10\vc\include\xmemory
_DATA	ENDS
;	COMDAT ??$_Destroy@V?$Point_@H@cv@@@std@@YAXPAV?$Point_@H@cv@@@Z
_TEXT	SEGMENT
??$_Destroy@V?$Point_@H@cv@@@std@@YAXPAV?$Point_@H@cv@@@Z PROC ; std::_Destroy<cv::Point_<int> >, COMDAT

; 63   : 	_Ptr->~_Ty();
; 64   : 	}

	ret	0
??$_Destroy@V?$Point_@H@cv@@@std@@YAXPAV?$Point_@H@cv@@@Z ENDP ; std::_Destroy<cv::Point_<int> >
; Function compile flags: /Ogtp
_TEXT	ENDS
;	COMDAT ?destroy@?$allocator@V?$Point_@H@cv@@@std@@QAEXPAV?$Point_@H@cv@@@Z
_TEXT	SEGMENT
?destroy@?$allocator@V?$Point_@H@cv@@@std@@QAEXPAV?$Point_@H@cv@@@Z PROC ; std::allocator<cv::Point_<int> >::destroy, COMDAT

; 213  : 		_Destroy(_Ptr);
; 214  : 		}

	ret	0
?destroy@?$allocator@V?$Point_@H@cv@@@std@@QAEXPAV?$Point_@H@cv@@@Z ENDP ; std::allocator<cv::Point_<int> >::destroy
; Function compile flags: /Ogtp
_TEXT	ENDS
;	COMDAT ??$_Dest_val@V?$allocator@V?$Point_@H@cv@@@std@@V?$Point_@H@cv@@@std@@YAXAAV?$allocator@V?$Point_@H@cv@@@0@PAV?$Point_@H@cv@@@Z
_TEXT	SEGMENT
??$_Dest_val@V?$allocator@V?$Point_@H@cv@@@std@@V?$Point_@H@cv@@@std@@YAXAAV?$allocator@V?$Point_@H@cv@@@0@PAV?$Point_@H@cv@@@Z PROC ; std::_Dest_val<std::allocator<cv::Point_<int> >,cv::Point_<int> >, COMDAT

; 287  : 	_Alval.destroy(_Pdest);
; 288  : 	}

	ret	0
??$_Dest_val@V?$allocator@V?$Point_@H@cv@@@std@@V?$Point_@H@cv@@@std@@YAXAAV?$allocator@V?$Point_@H@cv@@@0@PAV?$Point_@H@cv@@@Z ENDP ; std::_Dest_val<std::allocator<cv::Point_<int> >,cv::Point_<int> >
; Function compile flags: /Ogtp
_TEXT	ENDS
;	COMDAT ??$_Destroy_range@V?$allocator@V?$Point_@H@cv@@@std@@@std@@YAXPAV?$Point_@H@cv@@0AAV?$allocator@V?$Point_@H@cv@@@0@U_Nonscalar_ptr_iterator_tag@0@@Z
_TEXT	SEGMENT
___formal$ = 8						; size = 1
??$_Destroy_range@V?$allocator@V?$Point_@H@cv@@@std@@@std@@YAXPAV?$Point_@H@cv@@0AAV?$allocator@V?$Point_@H@cv@@@0@U_Nonscalar_ptr_iterator_tag@0@@Z PROC ; std::_Destroy_range<std::allocator<cv::Point_<int> > >, COMDAT

; 96   : 	for (; _First != _Last; ++_First)
; 97   : 		_Dest_val(_Al, _First);
; 98   : 	}

	ret	0
??$_Destroy_range@V?$allocator@V?$Point_@H@cv@@@std@@@std@@YAXPAV?$Point_@H@cv@@0AAV?$allocator@V?$Point_@H@cv@@@0@U_Nonscalar_ptr_iterator_tag@0@@Z ENDP ; std::_Destroy_range<std::allocator<cv::Point_<int> > >
; Function compile flags: /Ogtp
; File c:\programs & apps\visual studio 10\vc\include\xutility
_TEXT	ENDS
;	COMDAT ??$_Ptr_cat@V?$Point_@H@cv@@V12@@std@@YA?AU_Nonscalar_ptr_iterator_tag@0@PAV?$Point_@H@cv@@0@Z
_TEXT	SEGMENT
__Cat$ = -1						; size = 1
??$_Ptr_cat@V?$Point_@H@cv@@V12@@std@@YA?AU_Nonscalar_ptr_iterator_tag@0@PAV?$Point_@H@cv@@0@Z PROC ; std::_Ptr_cat<cv::Point_<int>,cv::Point_<int> >, COMDAT

; 516  : 	{	// return pointer category from pointers

	push	ebp
	mov	ebp, esp
	push	ecx

; 517  : 	typename _Ptr_cat_helper<_Elem1, _Elem2>::_Type _Cat;
; 518  : 	return (_Cat);

	mov	al, BYTE PTR __Cat$[ebp]

; 519  : 	}

	mov	esp, ebp
	pop	ebp
	ret	0
??$_Ptr_cat@V?$Point_@H@cv@@V12@@std@@YA?AU_Nonscalar_ptr_iterator_tag@0@PAV?$Point_@H@cv@@0@Z ENDP ; std::_Ptr_cat<cv::Point_<int>,cv::Point_<int> >
; Function compile flags: /Ogtp
; File c:\programs & apps\visual studio 10\vc\include\xmemory
_TEXT	ENDS
;	COMDAT ??$_Destroy_range@V?$allocator@V?$Point_@H@cv@@@std@@@std@@YAXPAV?$Point_@H@cv@@0AAV?$allocator@V?$Point_@H@cv@@@0@@Z
_TEXT	SEGMENT
??$_Destroy_range@V?$allocator@V?$Point_@H@cv@@@std@@@std@@YAXPAV?$Point_@H@cv@@0AAV?$allocator@V?$Point_@H@cv@@@0@@Z PROC ; std::_Destroy_range<std::allocator<cv::Point_<int> > >, COMDAT

; 88   : 	_Destroy_range(_First, _Last, _Al, _Ptr_cat(_First, _Last));
; 89   : 	}

	ret	0
??$_Destroy_range@V?$allocator@V?$Point_@H@cv@@@std@@@std@@YAXPAV?$Point_@H@cv@@0AAV?$allocator@V?$Point_@H@cv@@@0@@Z ENDP ; std::_Destroy_range<std::allocator<cv::Point_<int> > >
; Function compile flags: /Ogtp
_TEXT	ENDS
;	COMDAT ??$_Destroy@M@std@@YAXPAM@Z
_TEXT	SEGMENT
??$_Destroy@M@std@@YAXPAM@Z PROC			; std::_Destroy<float>, COMDAT

; 63   : 	_Ptr->~_Ty();
; 64   : 	}

	ret	0
??$_Destroy@M@std@@YAXPAM@Z ENDP			; std::_Destroy<float>
; Function compile flags: /Ogtp
_TEXT	ENDS
;	COMDAT ??$_Destroy@H@std@@YAXPAH@Z
_TEXT	SEGMENT
??$_Destroy@H@std@@YAXPAH@Z PROC			; std::_Destroy<int>, COMDAT

; 63   : 	_Ptr->~_Ty();
; 64   : 	}

	ret	0
??$_Destroy@H@std@@YAXPAH@Z ENDP			; std::_Destroy<int>
; Function compile flags: /Ogtp
; File c:\programs & apps\visual studio 10\vc\include\utility
_TEXT	ENDS
;	COMDAT ??$forward@ABM@std@@YAABMABM@Z
_TEXT	SEGMENT
??$forward@ABM@std@@YAABMABM@Z PROC			; std::forward<float const &>, COMDAT
; __Arg$ = eax

; 79   : 	return ((_Ty&&)_Arg);
; 80   : 	}

	ret	0
??$forward@ABM@std@@YAABMABM@Z ENDP			; std::forward<float const &>
; Function compile flags: /Ogtp
_TEXT	ENDS
;	COMDAT ??$forward@ABUDTreeNode@Data@CascadeClassifier@cv@@@std@@YAABUDTreeNode@Data@CascadeClassifier@cv@@ABU1234@@Z
_TEXT	SEGMENT
??$forward@ABUDTreeNode@Data@CascadeClassifier@cv@@@std@@YAABUDTreeNode@Data@CascadeClassifier@cv@@ABU1234@@Z PROC ; std::forward<cv::CascadeClassifier::Data::DTreeNode const &>, COMDAT
; __Arg$ = eax

; 79   : 	return ((_Ty&&)_Arg);
; 80   : 	}

	ret	0
??$forward@ABUDTreeNode@Data@CascadeClassifier@cv@@@std@@YAABUDTreeNode@Data@CascadeClassifier@cv@@ABU1234@@Z ENDP ; std::forward<cv::CascadeClassifier::Data::DTreeNode const &>
; Function compile flags: /Ogtp
_TEXT	ENDS
;	COMDAT ??$forward@ABUDTree@Data@CascadeClassifier@cv@@@std@@YAABUDTree@Data@CascadeClassifier@cv@@ABU1234@@Z
_TEXT	SEGMENT
??$forward@ABUDTree@Data@CascadeClassifier@cv@@@std@@YAABUDTree@Data@CascadeClassifier@cv@@ABU1234@@Z PROC ; std::forward<cv::CascadeClassifier::Data::DTree const &>, COMDAT
; __Arg$ = eax

; 79   : 	return ((_Ty&&)_Arg);
; 80   : 	}

	ret	0
??$forward@ABUDTree@Data@CascadeClassifier@cv@@@std@@YAABUDTree@Data@CascadeClassifier@cv@@ABU1234@@Z ENDP ; std::forward<cv::CascadeClassifier::Data::DTree const &>
; Function compile flags: /Ogtp
_TEXT	ENDS
;	COMDAT ??$forward@ABUStage@Data@CascadeClassifier@cv@@@std@@YAABUStage@Data@CascadeClassifier@cv@@ABU1234@@Z
_TEXT	SEGMENT
??$forward@ABUStage@Data@CascadeClassifier@cv@@@std@@YAABUStage@Data@CascadeClassifier@cv@@ABU1234@@Z PROC ; std::forward<cv::CascadeClassifier::Data::Stage const &>, COMDAT
; __Arg$ = eax

; 79   : 	return ((_Ty&&)_Arg);
; 80   : 	}

	ret	0
??$forward@ABUStage@Data@CascadeClassifier@cv@@@std@@YAABUStage@Data@CascadeClassifier@cv@@ABU1234@@Z ENDP ; std::forward<cv::CascadeClassifier::Data::Stage const &>
; Function compile flags: /Ogtp
_TEXT	ENDS
;	COMDAT ??$forward@ABH@std@@YAABHABH@Z
_TEXT	SEGMENT
??$forward@ABH@std@@YAABHABH@Z PROC			; std::forward<int const &>, COMDAT
; __Arg$ = eax

; 79   : 	return ((_Ty&&)_Arg);
; 80   : 	}

	ret	0
??$forward@ABH@std@@YAABHABH@Z ENDP			; std::forward<int const &>
; Function compile flags: /Ogtp
; File c:\programs & apps\visual studio 10\vc\include\xmemory
_TEXT	ENDS
;	COMDAT ?deallocate@?$allocator@V?$Point_@H@cv@@@std@@QAEXPAV?$Point_@H@cv@@I@Z
_TEXT	SEGMENT
?deallocate@?$allocator@V?$Point_@H@cv@@@std@@QAEXPAV?$Point_@H@cv@@I@Z PROC ; std::allocator<cv::Point_<int> >::deallocate, COMDAT
; __Ptr$ = eax

; 182  : 		::operator delete(_Ptr);

	push	eax
	call	DWORD PTR __imp_??3@YAXPAX@Z
	pop	ecx

; 183  : 		}

	ret	0
?deallocate@?$allocator@V?$Point_@H@cv@@@std@@QAEXPAV?$Point_@H@cv@@I@Z ENDP ; std::allocator<cv::Point_<int> >::deallocate
; Function compile flags: /Ogtp
; File c:\programs & apps\visual studio 10\vc\include\vector
_TEXT	ENDS
;	COMDAT ?_Destroy@?$vector@V?$Point_@H@cv@@V?$allocator@V?$Point_@H@cv@@@std@@@std@@IAEXPAV?$Point_@H@cv@@0@Z
_TEXT	SEGMENT
?_Destroy@?$vector@V?$Point_@H@cv@@V?$allocator@V?$Point_@H@cv@@@std@@@std@@IAEXPAV?$Point_@H@cv@@0@Z PROC ; std::vector<cv::Point_<int>,std::allocator<cv::Point_<int> > >::_Destroy, COMDAT

; 1270 : 		_Destroy_range(_First, _Last, this->_Alval);
; 1271 : 		}

	ret	0
?_Destroy@?$vector@V?$Point_@H@cv@@V?$allocator@V?$Point_@H@cv@@@std@@@std@@IAEXPAV?$Point_@H@cv@@0@Z ENDP ; std::vector<cv::Point_<int>,std::allocator<cv::Point_<int> > >::_Destroy
; Function compile flags: /Ogtp
_TEXT	ENDS
;	COMDAT ??1?$_Vector_val@V?$Point_@H@cv@@V?$allocator@V?$Point_@H@cv@@@std@@@std@@QAE@XZ
_TEXT	SEGMENT
??1?$_Vector_val@V?$Point_@H@cv@@V?$allocator@V?$Point_@H@cv@@@std@@@std@@QAE@XZ PROC ; std::_Vector_val<cv::Point_<int>,std::allocator<cv::Point_<int> > >::~_Vector_val<cv::Point_<int>,std::allocator<cv::Point_<int> > >, COMDAT

; 434  : 		}

	ret	0
??1?$_Vector_val@V?$Point_@H@cv@@V?$allocator@V?$Point_@H@cv@@@std@@@std@@QAE@XZ ENDP ; std::_Vector_val<cv::Point_<int>,std::allocator<cv::Point_<int> > >::~_Vector_val<cv::Point_<int>,std::allocator<cv::Point_<int> > >
; Function compile flags: /Ogtp
_TEXT	ENDS
;	COMDAT ?_Tidy@?$vector@V?$Point_@H@cv@@V?$allocator@V?$Point_@H@cv@@@std@@@std@@IAEXXZ
_TEXT	SEGMENT
?_Tidy@?$vector@V?$Point_@H@cv@@V?$allocator@V?$Point_@H@cv@@@std@@@std@@IAEXXZ PROC ; std::vector<cv::Point_<int>,std::allocator<cv::Point_<int> > >::_Tidy, COMDAT
; _this$ = esi

; 1302 : 		if (this->_Myfirst != 0)

	mov	eax, DWORD PTR [esi]
	test	eax, eax
	je	SHORT $LN6@Tidy

; 1303 : 			{	// something to free, destroy and deallocate it
; 1304 : 			this->_Orphan_all();
; 1305 : 			_Destroy(this->_Myfirst, this->_Mylast);
; 1306 : 			this->_Alval.deallocate(this->_Myfirst,
; 1307 : 				this->_Myend - this->_Myfirst);

	push	eax
	call	DWORD PTR __imp_??3@YAXPAX@Z
	add	esp, 4
$LN6@Tidy:

; 1308 : 			}
; 1309 : 		this->_Myfirst = 0;

	mov	DWORD PTR [esi], 0

; 1310 : 		this->_Mylast = 0;

	mov	DWORD PTR [esi+4], 0

; 1311 : 		this->_Myend = 0;

	mov	DWORD PTR [esi+8], 0

; 1312 : 		}

	ret	0
?_Tidy@?$vector@V?$Point_@H@cv@@V?$allocator@V?$Point_@H@cv@@@std@@@std@@IAEXXZ ENDP ; std::vector<cv::Point_<int>,std::allocator<cv::Point_<int> > >::_Tidy
; Function compile flags: /Ogtp
_TEXT	ENDS
;	COMDAT ??1?$vector@V?$Point_@H@cv@@V?$allocator@V?$Point_@H@cv@@@std@@@std@@QAE@XZ
_TEXT	SEGMENT
??1?$vector@V?$Point_@H@cv@@V?$allocator@V?$Point_@H@cv@@@std@@@std@@QAE@XZ PROC ; std::vector<cv::Point_<int>,std::allocator<cv::Point_<int> > >::~vector<cv::Point_<int>,std::allocator<cv::Point_<int> > >, COMDAT
; _this$ = esi

; 705  : 		_Tidy();

	mov	eax, DWORD PTR [esi]
	test	eax, eax
	je	SHORT $LN8@vector
	push	eax
	call	DWORD PTR __imp_??3@YAXPAX@Z
	add	esp, 4
$LN8@vector:
	mov	DWORD PTR [esi], 0
	mov	DWORD PTR [esi+4], 0
	mov	DWORD PTR [esi+8], 0

; 706  : 		}

	ret	0
??1?$vector@V?$Point_@H@cv@@V?$allocator@V?$Point_@H@cv@@@std@@@std@@QAE@XZ ENDP ; std::vector<cv::Point_<int>,std::allocator<cv::Point_<int> > >::~vector<cv::Point_<int>,std::allocator<cv::Point_<int> > >
; Function compile flags: /Ogtp
; File c:\programs & apps\visual studio 10\vc\include\xmemory
_TEXT	ENDS
;	COMDAT ?destroy@?$allocator@M@std@@QAEXPAM@Z
_TEXT	SEGMENT
?destroy@?$allocator@M@std@@QAEXPAM@Z PROC		; std::allocator<float>::destroy, COMDAT

; 213  : 		_Destroy(_Ptr);
; 214  : 		}

	ret	0
?destroy@?$allocator@M@std@@QAEXPAM@Z ENDP		; std::allocator<float>::destroy
; Function compile flags: /Ogtp
_TEXT	ENDS
;	COMDAT ?destroy@?$allocator@H@std@@QAEXPAH@Z
_TEXT	SEGMENT
?destroy@?$allocator@H@std@@QAEXPAH@Z PROC		; std::allocator<int>::destroy, COMDAT

; 213  : 		_Destroy(_Ptr);
; 214  : 		}

	ret	0
?destroy@?$allocator@H@std@@QAEXPAH@Z ENDP		; std::allocator<int>::destroy
; Function compile flags: /Ogtp
_TEXT	ENDS
;	COMDAT ??_G?$vector@V?$Point_@H@cv@@V?$allocator@V?$Point_@H@cv@@@std@@@std@@QAEPAXI@Z
_TEXT	SEGMENT
??_G?$vector@V?$Point_@H@cv@@V?$allocator@V?$Point_@H@cv@@@std@@@std@@QAEPAXI@Z PROC ; std::vector<cv::Point_<int>,std::allocator<cv::Point_<int> > >::`scalar deleting destructor', COMDAT
; _this$ = esi
	mov	eax, DWORD PTR [esi]
	test	eax, eax
	je	SHORT $LN11@scalar
	push	eax
	call	DWORD PTR __imp_??3@YAXPAX@Z
	add	esp, 4
$LN11@scalar:
	mov	DWORD PTR [esi], 0
	mov	DWORD PTR [esi+4], 0
	mov	DWORD PTR [esi+8], 0
	mov	eax, esi
	ret	0
??_G?$vector@V?$Point_@H@cv@@V?$allocator@V?$Point_@H@cv@@@std@@@std@@QAEPAXI@Z ENDP ; std::vector<cv::Point_<int>,std::allocator<cv::Point_<int> > >::`scalar deleting destructor'
; Function compile flags: /Ogtp
_TEXT	ENDS
;	COMDAT ??$_Destroy@V?$Vec@H$03@cv@@@std@@YAXPAV?$Vec@H$03@cv@@@Z
_TEXT	SEGMENT
??$_Destroy@V?$Vec@H$03@cv@@@std@@YAXPAV?$Vec@H$03@cv@@@Z PROC ; std::_Destroy<cv::Vec<int,4> >, COMDAT

; 63   : 	_Ptr->~_Ty();
; 64   : 	}

	ret	0
??$_Destroy@V?$Vec@H$03@cv@@@std@@YAXPAV?$Vec@H$03@cv@@@Z ENDP ; std::_Destroy<cv::Vec<int,4> >
; Function compile flags: /Ogtp
_TEXT	ENDS
;	COMDAT ??$_Destroy@V?$vector@V?$Point_@H@cv@@V?$allocator@V?$Point_@H@cv@@@std@@@std@@@std@@YAXPAV?$vector@V?$Point_@H@cv@@V?$allocator@V?$Point_@H@cv@@@std@@@0@@Z
_TEXT	SEGMENT
??$_Destroy@V?$vector@V?$Point_@H@cv@@V?$allocator@V?$Point_@H@cv@@@std@@@std@@@std@@YAXPAV?$vector@V?$Point_@H@cv@@V?$allocator@V?$Point_@H@cv@@@std@@@0@@Z PROC ; std::_Destroy<std::vector<cv::Point_<int>,std::allocator<cv::Point_<int> > > >, COMDAT
; __Ptr$ = esi

; 63   : 	_Ptr->~_Ty();

	mov	eax, DWORD PTR [esi]
	test	eax, eax
	je	SHORT $LN13@Destroy
	push	eax
	call	DWORD PTR __imp_??3@YAXPAX@Z
	add	esp, 4
$LN13@Destroy:
	mov	DWORD PTR [esi], 0
	mov	DWORD PTR [esi+4], 0
	mov	DWORD PTR [esi+8], 0

; 64   : 	}

	ret	0
??$_Destroy@V?$vector@V?$Point_@H@cv@@V?$allocator@V?$Point_@H@cv@@@std@@@std@@@std@@YAXPAV?$vector@V?$Point_@H@cv@@V?$allocator@V?$Point_@H@cv@@@std@@@0@@Z ENDP ; std::_Destroy<std::vector<cv::Point_<int>,std::allocator<cv::Point_<int> > > >
; Function compile flags: /Ogtp
_TEXT	ENDS
;	COMDAT ??$_Destroy@V?$Rect_@H@cv@@@std@@YAXPAV?$Rect_@H@cv@@@Z
_TEXT	SEGMENT
??$_Destroy@V?$Rect_@H@cv@@@std@@YAXPAV?$Rect_@H@cv@@@Z PROC ; std::_Destroy<cv::Rect_<int> >, COMDAT

; 63   : 	_Ptr->~_Ty();
; 64   : 	}

	ret	0
??$_Destroy@V?$Rect_@H@cv@@@std@@YAXPAV?$Rect_@H@cv@@@Z ENDP ; std::_Destroy<cv::Rect_<int> >
; Function compile flags: /Ogtp
_TEXT	ENDS
;	COMDAT ??$_Destroy@UDTreeNode@Data@CascadeClassifier@cv@@@std@@YAXPAUDTreeNode@Data@CascadeClassifier@cv@@@Z
_TEXT	SEGMENT
??$_Destroy@UDTreeNode@Data@CascadeClassifier@cv@@@std@@YAXPAUDTreeNode@Data@CascadeClassifier@cv@@@Z PROC ; std::_Destroy<cv::CascadeClassifier::Data::DTreeNode>, COMDAT

; 63   : 	_Ptr->~_Ty();
; 64   : 	}

	ret	0
??$_Destroy@UDTreeNode@Data@CascadeClassifier@cv@@@std@@YAXPAUDTreeNode@Data@CascadeClassifier@cv@@@Z ENDP ; std::_Destroy<cv::CascadeClassifier::Data::DTreeNode>
; Function compile flags: /Ogtp
_TEXT	ENDS
;	COMDAT ??$_Destroy@UDTree@Data@CascadeClassifier@cv@@@std@@YAXPAUDTree@Data@CascadeClassifier@cv@@@Z
_TEXT	SEGMENT
??$_Destroy@UDTree@Data@CascadeClassifier@cv@@@std@@YAXPAUDTree@Data@CascadeClassifier@cv@@@Z PROC ; std::_Destroy<cv::CascadeClassifier::Data::DTree>, COMDAT

; 63   : 	_Ptr->~_Ty();
; 64   : 	}

	ret	0
??$_Destroy@UDTree@Data@CascadeClassifier@cv@@@std@@YAXPAUDTree@Data@CascadeClassifier@cv@@@Z ENDP ; std::_Destroy<cv::CascadeClassifier::Data::DTree>
; Function compile flags: /Ogtp
_TEXT	ENDS
;	COMDAT ??$_Destroy@UStage@Data@CascadeClassifier@cv@@@std@@YAXPAUStage@Data@CascadeClassifier@cv@@@Z
_TEXT	SEGMENT
??$_Destroy@UStage@Data@CascadeClassifier@cv@@@std@@YAXPAUStage@Data@CascadeClassifier@cv@@@Z PROC ; std::_Destroy<cv::CascadeClassifier::Data::Stage>, COMDAT

; 63   : 	_Ptr->~_Ty();
; 64   : 	}

	ret	0
??$_Destroy@UStage@Data@CascadeClassifier@cv@@@std@@YAXPAUStage@Data@CascadeClassifier@cv@@@Z ENDP ; std::_Destroy<cv::CascadeClassifier::Data::Stage>
; Function compile flags: /Ogtp
_TEXT	ENDS
;	COMDAT ??$_Dest_val@V?$allocator@M@std@@M@std@@YAXAAV?$allocator@M@0@PAM@Z
_TEXT	SEGMENT
??$_Dest_val@V?$allocator@M@std@@M@std@@YAXAAV?$allocator@M@0@PAM@Z PROC ; std::_Dest_val<std::allocator<float>,float>, COMDAT

; 287  : 	_Alval.destroy(_Pdest);
; 288  : 	}

	ret	0
??$_Dest_val@V?$allocator@M@std@@M@std@@YAXAAV?$allocator@M@0@PAM@Z ENDP ; std::_Dest_val<std::allocator<float>,float>
; Function compile flags: /Ogtp
_TEXT	ENDS
;	COMDAT ??$_Dest_val@V?$allocator@H@std@@H@std@@YAXAAV?$allocator@H@0@PAH@Z
_TEXT	SEGMENT
??$_Dest_val@V?$allocator@H@std@@H@std@@YAXAAV?$allocator@H@0@PAH@Z PROC ; std::_Dest_val<std::allocator<int>,int>, COMDAT

; 287  : 	_Alval.destroy(_Pdest);
; 288  : 	}

	ret	0
??$_Dest_val@V?$allocator@H@std@@H@std@@YAXAAV?$allocator@H@0@PAH@Z ENDP ; std::_Dest_val<std::allocator<int>,int>
; Function compile flags: /Ogtp
; File c:\programs & apps\visual studio 10\vc\include\vector
_TEXT	ENDS
;	COMDAT ?_Compat@?$_Vector_const_iterator@V?$_Vector_val@MV?$allocator@M@std@@@std@@@std@@QBEXABV12@@Z
_TEXT	SEGMENT
?_Compat@?$_Vector_const_iterator@V?$_Vector_val@MV?$allocator@M@std@@@std@@@std@@QBEXABV12@@Z PROC ; std::_Vector_const_iterator<std::_Vector_val<float,std::allocator<float> > >::_Compat, COMDAT

; 253  : 		}

	ret	0
?_Compat@?$_Vector_const_iterator@V?$_Vector_val@MV?$allocator@M@std@@@std@@@std@@QBEXABV12@@Z ENDP ; std::_Vector_const_iterator<std::_Vector_val<float,std::allocator<float> > >::_Compat
; Function compile flags: /Ogtp
_TEXT	ENDS
;	COMDAT ?_Compat@?$_Vector_const_iterator@V?$_Vector_val@UDTreeNode@Data@CascadeClassifier@cv@@V?$allocator@UDTreeNode@Data@CascadeClassifier@cv@@@std@@@std@@@std@@QBEXABV12@@Z
_TEXT	SEGMENT
?_Compat@?$_Vector_const_iterator@V?$_Vector_val@UDTreeNode@Data@CascadeClassifier@cv@@V?$allocator@UDTreeNode@Data@CascadeClassifier@cv@@@std@@@std@@@std@@QBEXABV12@@Z PROC ; std::_Vector_const_iterator<std::_Vector_val<cv::CascadeClassifier::Data::DTreeNode,std::allocator<cv::CascadeClassifier::Data::DTreeNode> > >::_Compat, COMDAT

; 253  : 		}

	ret	0
?_Compat@?$_Vector_const_iterator@V?$_Vector_val@UDTreeNode@Data@CascadeClassifier@cv@@V?$allocator@UDTreeNode@Data@CascadeClassifier@cv@@@std@@@std@@@std@@QBEXABV12@@Z ENDP ; std::_Vector_const_iterator<std::_Vector_val<cv::CascadeClassifier::Data::DTreeNode,std::allocator<cv::CascadeClassifier::Data::DTreeNode> > >::_Compat
; Function compile flags: /Ogtp
_TEXT	ENDS
;	COMDAT ?_Compat@?$_Vector_const_iterator@V?$_Vector_val@UDTree@Data@CascadeClassifier@cv@@V?$allocator@UDTree@Data@CascadeClassifier@cv@@@std@@@std@@@std@@QBEXABV12@@Z
_TEXT	SEGMENT
?_Compat@?$_Vector_const_iterator@V?$_Vector_val@UDTree@Data@CascadeClassifier@cv@@V?$allocator@UDTree@Data@CascadeClassifier@cv@@@std@@@std@@@std@@QBEXABV12@@Z PROC ; std::_Vector_const_iterator<std::_Vector_val<cv::CascadeClassifier::Data::DTree,std::allocator<cv::CascadeClassifier::Data::DTree> > >::_Compat, COMDAT

; 253  : 		}

	ret	0
?_Compat@?$_Vector_const_iterator@V?$_Vector_val@UDTree@Data@CascadeClassifier@cv@@V?$allocator@UDTree@Data@CascadeClassifier@cv@@@std@@@std@@@std@@QBEXABV12@@Z ENDP ; std::_Vector_const_iterator<std::_Vector_val<cv::CascadeClassifier::Data::DTree,std::allocator<cv::CascadeClassifier::Data::DTree> > >::_Compat
; Function compile flags: /Ogtp
_TEXT	ENDS
;	COMDAT ?_Compat@?$_Vector_const_iterator@V?$_Vector_val@UStage@Data@CascadeClassifier@cv@@V?$allocator@UStage@Data@CascadeClassifier@cv@@@std@@@std@@@std@@QBEXABV12@@Z
_TEXT	SEGMENT
?_Compat@?$_Vector_const_iterator@V?$_Vector_val@UStage@Data@CascadeClassifier@cv@@V?$allocator@UStage@Data@CascadeClassifier@cv@@@std@@@std@@@std@@QBEXABV12@@Z PROC ; std::_Vector_const_iterator<std::_Vector_val<cv::CascadeClassifier::Data::Stage,std::allocator<cv::CascadeClassifier::Data::Stage> > >::_Compat, COMDAT

; 253  : 		}

	ret	0
?_Compat@?$_Vector_const_iterator@V?$_Vector_val@UStage@Data@CascadeClassifier@cv@@V?$allocator@UStage@Data@CascadeClassifier@cv@@@std@@@std@@@std@@QBEXABV12@@Z ENDP ; std::_Vector_const_iterator<std::_Vector_val<cv::CascadeClassifier::Data::Stage,std::allocator<cv::CascadeClassifier::Data::Stage> > >::_Compat
; Function compile flags: /Ogtp
_TEXT	ENDS
;	COMDAT ??8?$_Vector_const_iterator@V?$_Vector_val@MV?$allocator@M@std@@@std@@@std@@QBE_NABV01@@Z
_TEXT	SEGMENT
??8?$_Vector_const_iterator@V?$_Vector_val@MV?$allocator@M@std@@@std@@@std@@QBE_NABV01@@Z PROC ; std::_Vector_const_iterator<std::_Vector_val<float,std::allocator<float> > >::operator==, COMDAT
; _this$ = eax
; __Right$ = edx

; 202  : 		_Compat(_Right);
; 203  : 		return (this->_Ptr == _Right._Ptr);

	mov	ecx, DWORD PTR [eax]
	xor	eax, eax
	cmp	ecx, DWORD PTR [edx]
	sete	al

; 204  : 		}

	ret	0
??8?$_Vector_const_iterator@V?$_Vector_val@MV?$allocator@M@std@@@std@@@std@@QBE_NABV01@@Z ENDP ; std::_Vector_const_iterator<std::_Vector_val<float,std::allocator<float> > >::operator==
; Function compile flags: /Ogtp
_TEXT	ENDS
;	COMDAT ??8?$_Vector_const_iterator@V?$_Vector_val@UDTreeNode@Data@CascadeClassifier@cv@@V?$allocator@UDTreeNode@Data@CascadeClassifier@cv@@@std@@@std@@@std@@QBE_NABV01@@Z
_TEXT	SEGMENT
??8?$_Vector_const_iterator@V?$_Vector_val@UDTreeNode@Data@CascadeClassifier@cv@@V?$allocator@UDTreeNode@Data@CascadeClassifier@cv@@@std@@@std@@@std@@QBE_NABV01@@Z PROC ; std::_Vector_const_iterator<std::_Vector_val<cv::CascadeClassifier::Data::DTreeNode,std::allocator<cv::CascadeClassifier::Data::DTreeNode> > >::operator==, COMDAT
; _this$ = eax
; __Right$ = edx

; 202  : 		_Compat(_Right);
; 203  : 		return (this->_Ptr == _Right._Ptr);

	mov	ecx, DWORD PTR [eax]
	xor	eax, eax
	cmp	ecx, DWORD PTR [edx]
	sete	al

; 204  : 		}

	ret	0
??8?$_Vector_const_iterator@V?$_Vector_val@UDTreeNode@Data@CascadeClassifier@cv@@V?$allocator@UDTreeNode@Data@CascadeClassifier@cv@@@std@@@std@@@std@@QBE_NABV01@@Z ENDP ; std::_Vector_const_iterator<std::_Vector_val<cv::CascadeClassifier::Data::DTreeNode,std::allocator<cv::CascadeClassifier::Data::DTreeNode> > >::operator==
; Function compile flags: /Ogtp
_TEXT	ENDS
;	COMDAT ??8?$_Vector_const_iterator@V?$_Vector_val@UDTree@Data@CascadeClassifier@cv@@V?$allocator@UDTree@Data@CascadeClassifier@cv@@@std@@@std@@@std@@QBE_NABV01@@Z
_TEXT	SEGMENT
??8?$_Vector_const_iterator@V?$_Vector_val@UDTree@Data@CascadeClassifier@cv@@V?$allocator@UDTree@Data@CascadeClassifier@cv@@@std@@@std@@@std@@QBE_NABV01@@Z PROC ; std::_Vector_const_iterator<std::_Vector_val<cv::CascadeClassifier::Data::DTree,std::allocator<cv::CascadeClassifier::Data::DTree> > >::operator==, COMDAT
; _this$ = eax
; __Right$ = edx

; 202  : 		_Compat(_Right);
; 203  : 		return (this->_Ptr == _Right._Ptr);

	mov	ecx, DWORD PTR [eax]
	xor	eax, eax
	cmp	ecx, DWORD PTR [edx]
	sete	al

; 204  : 		}

	ret	0
??8?$_Vector_const_iterator@V?$_Vector_val@UDTree@Data@CascadeClassifier@cv@@V?$allocator@UDTree@Data@CascadeClassifier@cv@@@std@@@std@@@std@@QBE_NABV01@@Z ENDP ; std::_Vector_const_iterator<std::_Vector_val<cv::CascadeClassifier::Data::DTree,std::allocator<cv::CascadeClassifier::Data::DTree> > >::operator==
; Function compile flags: /Ogtp
_TEXT	ENDS
;	COMDAT ??8?$_Vector_const_iterator@V?$_Vector_val@UStage@Data@CascadeClassifier@cv@@V?$allocator@UStage@Data@CascadeClassifier@cv@@@std@@@std@@@std@@QBE_NABV01@@Z
_TEXT	SEGMENT
??8?$_Vector_const_iterator@V?$_Vector_val@UStage@Data@CascadeClassifier@cv@@V?$allocator@UStage@Data@CascadeClassifier@cv@@@std@@@std@@@std@@QBE_NABV01@@Z PROC ; std::_Vector_const_iterator<std::_Vector_val<cv::CascadeClassifier::Data::Stage,std::allocator<cv::CascadeClassifier::Data::Stage> > >::operator==, COMDAT
; _this$ = eax
; __Right$ = edx

; 202  : 		_Compat(_Right);
; 203  : 		return (this->_Ptr == _Right._Ptr);

	mov	ecx, DWORD PTR [eax]
	xor	eax, eax
	cmp	ecx, DWORD PTR [edx]
	sete	al

; 204  : 		}

	ret	0
??8?$_Vector_const_iterator@V?$_Vector_val@UStage@Data@CascadeClassifier@cv@@V?$allocator@UStage@Data@CascadeClassifier@cv@@@std@@@std@@@std@@QBE_NABV01@@Z ENDP ; std::_Vector_const_iterator<std::_Vector_val<cv::CascadeClassifier::Data::Stage,std::allocator<cv::CascadeClassifier::Data::Stage> > >::operator==
; Function compile flags: /Ogtp
_TEXT	ENDS
;	COMDAT ??9?$_Vector_const_iterator@V?$_Vector_val@MV?$allocator@M@std@@@std@@@std@@QBE_NABV01@@Z
_TEXT	SEGMENT
??9?$_Vector_const_iterator@V?$_Vector_val@MV?$allocator@M@std@@@std@@@std@@QBE_NABV01@@Z PROC ; std::_Vector_const_iterator<std::_Vector_val<float,std::allocator<float> > >::operator!=, COMDAT
; _this$ = eax
; __Right$ = edx

; 208  : 		return (!(*this == _Right));

	mov	ecx, DWORD PTR [eax]
	xor	eax, eax
	cmp	ecx, DWORD PTR [edx]
	setne	al

; 209  : 		}

	ret	0
??9?$_Vector_const_iterator@V?$_Vector_val@MV?$allocator@M@std@@@std@@@std@@QBE_NABV01@@Z ENDP ; std::_Vector_const_iterator<std::_Vector_val<float,std::allocator<float> > >::operator!=
; Function compile flags: /Ogtp
_TEXT	ENDS
;	COMDAT ??E?$_Vector_const_iterator@V?$_Vector_val@MV?$allocator@M@std@@@std@@@std@@QAEAAV01@XZ
_TEXT	SEGMENT
??E?$_Vector_const_iterator@V?$_Vector_val@MV?$allocator@M@std@@@std@@@std@@QAEAAV01@XZ PROC ; std::_Vector_const_iterator<std::_Vector_val<float,std::allocator<float> > >::operator++, COMDAT
; _this$ = eax

; 94   :  #if _ITERATOR_DEBUG_LEVEL == 2
; 95   : 		if (this->_Getcont() == 0
; 96   : 			|| this->_Ptr == 0
; 97   : 			|| ((_Myvec *)this->_Getcont())->_Mylast <= this->_Ptr)
; 98   : 			{	// report error
; 99   : 			_DEBUG_ERROR("vector iterator not incrementable");
; 100  : 			_SCL_SECURE_OUT_OF_RANGE;
; 101  : 			}
; 102  : 
; 103  :  #elif _ITERATOR_DEBUG_LEVEL == 1
; 104  : 		_SCL_SECURE_VALIDATE(this->_Getcont() != 0);
; 105  : 		_SCL_SECURE_VALIDATE_RANGE(
; 106  : 			this->_Ptr != 0
; 107  : 			&& this->_Ptr < ((_Myvec *)this->_Getcont())->_Mylast);
; 108  :  #endif /* _ITERATOR_DEBUG_LEVEL */
; 109  : 
; 110  : 		++this->_Ptr;

	add	DWORD PTR [eax], 4

; 111  : 		return (*this);
; 112  : 		}

	ret	0
??E?$_Vector_const_iterator@V?$_Vector_val@MV?$allocator@M@std@@@std@@@std@@QAEAAV01@XZ ENDP ; std::_Vector_const_iterator<std::_Vector_val<float,std::allocator<float> > >::operator++
; Function compile flags: /Ogtp
_TEXT	ENDS
;	COMDAT ??D?$_Vector_const_iterator@V?$_Vector_val@MV?$allocator@M@std@@@std@@@std@@QBEABMXZ
_TEXT	SEGMENT
??D?$_Vector_const_iterator@V?$_Vector_val@MV?$allocator@M@std@@@std@@@std@@QBEABMXZ PROC ; std::_Vector_const_iterator<std::_Vector_val<float,std::allocator<float> > >::operator*, COMDAT
; _this$ = eax

; 64   :  #if _ITERATOR_DEBUG_LEVEL == 2
; 65   : 		if (this->_Getcont() == 0
; 66   : 			|| this->_Ptr == 0
; 67   : 			|| this->_Ptr < ((_Myvec *)this->_Getcont())->_Myfirst
; 68   : 			|| ((_Myvec *)this->_Getcont())->_Mylast <= this->_Ptr)
; 69   : 			{	// report error
; 70   : 			_DEBUG_ERROR("vector iterator not dereferencable");
; 71   : 			_SCL_SECURE_OUT_OF_RANGE;
; 72   : 			}
; 73   : 
; 74   :  #elif _ITERATOR_DEBUG_LEVEL == 1
; 75   : 		_SCL_SECURE_VALIDATE(this->_Getcont() != 0);
; 76   : 		_SCL_SECURE_VALIDATE_RANGE(
; 77   : 			this->_Ptr != 0
; 78   : 			&& ((_Myvec *)this->_Getcont())->_Myfirst <= this->_Ptr
; 79   : 			&& this->_Ptr < ((_Myvec *)this->_Getcont())->_Mylast);
; 80   :  #endif /* _ITERATOR_DEBUG_LEVEL */
; 81   : 
; 82   : 		__analysis_assume(this->_Ptr != 0);
; 83   : 
; 84   : 		return (*this->_Ptr);

	mov	eax, DWORD PTR [eax]

; 85   : 		}

	ret	0
??D?$_Vector_const_iterator@V?$_Vector_val@MV?$allocator@M@std@@@std@@@std@@QBEABMXZ ENDP ; std::_Vector_const_iterator<std::_Vector_val<float,std::allocator<float> > >::operator*
; Function compile flags: /Ogtp
_TEXT	ENDS
;	COMDAT ??9?$_Vector_const_iterator@V?$_Vector_val@UDTreeNode@Data@CascadeClassifier@cv@@V?$allocator@UDTreeNode@Data@CascadeClassifier@cv@@@std@@@std@@@std@@QBE_NABV01@@Z
_TEXT	SEGMENT
??9?$_Vector_const_iterator@V?$_Vector_val@UDTreeNode@Data@CascadeClassifier@cv@@V?$allocator@UDTreeNode@Data@CascadeClassifier@cv@@@std@@@std@@@std@@QBE_NABV01@@Z PROC ; std::_Vector_const_iterator<std::_Vector_val<cv::CascadeClassifier::Data::DTreeNode,std::allocator<cv::CascadeClassifier::Data::DTreeNode> > >::operator!=, COMDAT
; _this$ = eax
; __Right$ = edx

; 208  : 		return (!(*this == _Right));

	mov	ecx, DWORD PTR [eax]
	xor	eax, eax
	cmp	ecx, DWORD PTR [edx]
	setne	al

; 209  : 		}

	ret	0
??9?$_Vector_const_iterator@V?$_Vector_val@UDTreeNode@Data@CascadeClassifier@cv@@V?$allocator@UDTreeNode@Data@CascadeClassifier@cv@@@std@@@std@@@std@@QBE_NABV01@@Z ENDP ; std::_Vector_const_iterator<std::_Vector_val<cv::CascadeClassifier::Data::DTreeNode,std::allocator<cv::CascadeClassifier::Data::DTreeNode> > >::operator!=
; Function compile flags: /Ogtp
_TEXT	ENDS
;	COMDAT ??E?$_Vector_const_iterator@V?$_Vector_val@UDTreeNode@Data@CascadeClassifier@cv@@V?$allocator@UDTreeNode@Data@CascadeClassifier@cv@@@std@@@std@@@std@@QAEAAV01@XZ
_TEXT	SEGMENT
??E?$_Vector_const_iterator@V?$_Vector_val@UDTreeNode@Data@CascadeClassifier@cv@@V?$allocator@UDTreeNode@Data@CascadeClassifier@cv@@@std@@@std@@@std@@QAEAAV01@XZ PROC ; std::_Vector_const_iterator<std::_Vector_val<cv::CascadeClassifier::Data::DTreeNode,std::allocator<cv::CascadeClassifier::Data::DTreeNode> > >::operator++, COMDAT
; _this$ = eax

; 94   :  #if _ITERATOR_DEBUG_LEVEL == 2
; 95   : 		if (this->_Getcont() == 0
; 96   : 			|| this->_Ptr == 0
; 97   : 			|| ((_Myvec *)this->_Getcont())->_Mylast <= this->_Ptr)
; 98   : 			{	// report error
; 99   : 			_DEBUG_ERROR("vector iterator not incrementable");
; 100  : 			_SCL_SECURE_OUT_OF_RANGE;
; 101  : 			}
; 102  : 
; 103  :  #elif _ITERATOR_DEBUG_LEVEL == 1
; 104  : 		_SCL_SECURE_VALIDATE(this->_Getcont() != 0);
; 105  : 		_SCL_SECURE_VALIDATE_RANGE(
; 106  : 			this->_Ptr != 0
; 107  : 			&& this->_Ptr < ((_Myvec *)this->_Getcont())->_Mylast);
; 108  :  #endif /* _ITERATOR_DEBUG_LEVEL */
; 109  : 
; 110  : 		++this->_Ptr;

	add	DWORD PTR [eax], 16			; 00000010H

; 111  : 		return (*this);
; 112  : 		}

	ret	0
??E?$_Vector_const_iterator@V?$_Vector_val@UDTreeNode@Data@CascadeClassifier@cv@@V?$allocator@UDTreeNode@Data@CascadeClassifier@cv@@@std@@@std@@@std@@QAEAAV01@XZ ENDP ; std::_Vector_const_iterator<std::_Vector_val<cv::CascadeClassifier::Data::DTreeNode,std::allocator<cv::CascadeClassifier::Data::DTreeNode> > >::operator++
; Function compile flags: /Ogtp
_TEXT	ENDS
;	COMDAT ??D?$_Vector_const_iterator@V?$_Vector_val@UDTreeNode@Data@CascadeClassifier@cv@@V?$allocator@UDTreeNode@Data@CascadeClassifier@cv@@@std@@@std@@@std@@QBEABUDTreeNode@Data@CascadeClassifier@cv@@XZ
_TEXT	SEGMENT
??D?$_Vector_const_iterator@V?$_Vector_val@UDTreeNode@Data@CascadeClassifier@cv@@V?$allocator@UDTreeNode@Data@CascadeClassifier@cv@@@std@@@std@@@std@@QBEABUDTreeNode@Data@CascadeClassifier@cv@@XZ PROC ; std::_Vector_const_iterator<std::_Vector_val<cv::CascadeClassifier::Data::DTreeNode,std::allocator<cv::CascadeClassifier::Data::DTreeNode> > >::operator*, COMDAT
; _this$ = eax

; 64   :  #if _ITERATOR_DEBUG_LEVEL == 2
; 65   : 		if (this->_Getcont() == 0
; 66   : 			|| this->_Ptr == 0
; 67   : 			|| this->_Ptr < ((_Myvec *)this->_Getcont())->_Myfirst
; 68   : 			|| ((_Myvec *)this->_Getcont())->_Mylast <= this->_Ptr)
; 69   : 			{	// report error
; 70   : 			_DEBUG_ERROR("vector iterator not dereferencable");
; 71   : 			_SCL_SECURE_OUT_OF_RANGE;
; 72   : 			}
; 73   : 
; 74   :  #elif _ITERATOR_DEBUG_LEVEL == 1
; 75   : 		_SCL_SECURE_VALIDATE(this->_Getcont() != 0);
; 76   : 		_SCL_SECURE_VALIDATE_RANGE(
; 77   : 			this->_Ptr != 0
; 78   : 			&& ((_Myvec *)this->_Getcont())->_Myfirst <= this->_Ptr
; 79   : 			&& this->_Ptr < ((_Myvec *)this->_Getcont())->_Mylast);
; 80   :  #endif /* _ITERATOR_DEBUG_LEVEL */
; 81   : 
; 82   : 		__analysis_assume(this->_Ptr != 0);
; 83   : 
; 84   : 		return (*this->_Ptr);

	mov	eax, DWORD PTR [eax]

; 85   : 		}

	ret	0
??D?$_Vector_const_iterator@V?$_Vector_val@UDTreeNode@Data@CascadeClassifier@cv@@V?$allocator@UDTreeNode@Data@CascadeClassifier@cv@@@std@@@std@@@std@@QBEABUDTreeNode@Data@CascadeClassifier@cv@@XZ ENDP ; std::_Vector_const_iterator<std::_Vector_val<cv::CascadeClassifier::Data::DTreeNode,std::allocator<cv::CascadeClassifier::Data::DTreeNode> > >::operator*
; Function compile flags: /Ogtp
_TEXT	ENDS
;	COMDAT ??9?$_Vector_const_iterator@V?$_Vector_val@UDTree@Data@CascadeClassifier@cv@@V?$allocator@UDTree@Data@CascadeClassifier@cv@@@std@@@std@@@std@@QBE_NABV01@@Z
_TEXT	SEGMENT
??9?$_Vector_const_iterator@V?$_Vector_val@UDTree@Data@CascadeClassifier@cv@@V?$allocator@UDTree@Data@CascadeClassifier@cv@@@std@@@std@@@std@@QBE_NABV01@@Z PROC ; std::_Vector_const_iterator<std::_Vector_val<cv::CascadeClassifier::Data::DTree,std::allocator<cv::CascadeClassifier::Data::DTree> > >::operator!=, COMDAT
; _this$ = eax
; __Right$ = edx

; 208  : 		return (!(*this == _Right));

	mov	ecx, DWORD PTR [eax]
	xor	eax, eax
	cmp	ecx, DWORD PTR [edx]
	setne	al

; 209  : 		}

	ret	0
??9?$_Vector_const_iterator@V?$_Vector_val@UDTree@Data@CascadeClassifier@cv@@V?$allocator@UDTree@Data@CascadeClassifier@cv@@@std@@@std@@@std@@QBE_NABV01@@Z ENDP ; std::_Vector_const_iterator<std::_Vector_val<cv::CascadeClassifier::Data::DTree,std::allocator<cv::CascadeClassifier::Data::DTree> > >::operator!=
; Function compile flags: /Ogtp
_TEXT	ENDS
;	COMDAT ??E?$_Vector_const_iterator@V?$_Vector_val@UDTree@Data@CascadeClassifier@cv@@V?$allocator@UDTree@Data@CascadeClassifier@cv@@@std@@@std@@@std@@QAEAAV01@XZ
_TEXT	SEGMENT
??E?$_Vector_const_iterator@V?$_Vector_val@UDTree@Data@CascadeClassifier@cv@@V?$allocator@UDTree@Data@CascadeClassifier@cv@@@std@@@std@@@std@@QAEAAV01@XZ PROC ; std::_Vector_const_iterator<std::_Vector_val<cv::CascadeClassifier::Data::DTree,std::allocator<cv::CascadeClassifier::Data::DTree> > >::operator++, COMDAT
; _this$ = eax

; 94   :  #if _ITERATOR_DEBUG_LEVEL == 2
; 95   : 		if (this->_Getcont() == 0
; 96   : 			|| this->_Ptr == 0
; 97   : 			|| ((_Myvec *)this->_Getcont())->_Mylast <= this->_Ptr)
; 98   : 			{	// report error
; 99   : 			_DEBUG_ERROR("vector iterator not incrementable");
; 100  : 			_SCL_SECURE_OUT_OF_RANGE;
; 101  : 			}
; 102  : 
; 103  :  #elif _ITERATOR_DEBUG_LEVEL == 1
; 104  : 		_SCL_SECURE_VALIDATE(this->_Getcont() != 0);
; 105  : 		_SCL_SECURE_VALIDATE_RANGE(
; 106  : 			this->_Ptr != 0
; 107  : 			&& this->_Ptr < ((_Myvec *)this->_Getcont())->_Mylast);
; 108  :  #endif /* _ITERATOR_DEBUG_LEVEL */
; 109  : 
; 110  : 		++this->_Ptr;

	add	DWORD PTR [eax], 4

; 111  : 		return (*this);
; 112  : 		}

	ret	0
??E?$_Vector_const_iterator@V?$_Vector_val@UDTree@Data@CascadeClassifier@cv@@V?$allocator@UDTree@Data@CascadeClassifier@cv@@@std@@@std@@@std@@QAEAAV01@XZ ENDP ; std::_Vector_const_iterator<std::_Vector_val<cv::CascadeClassifier::Data::DTree,std::allocator<cv::CascadeClassifier::Data::DTree> > >::operator++
; Function compile flags: /Ogtp
_TEXT	ENDS
;	COMDAT ??D?$_Vector_const_iterator@V?$_Vector_val@UDTree@Data@CascadeClassifier@cv@@V?$allocator@UDTree@Data@CascadeClassifier@cv@@@std@@@std@@@std@@QBEABUDTree@Data@CascadeClassifier@cv@@XZ
_TEXT	SEGMENT
??D?$_Vector_const_iterator@V?$_Vector_val@UDTree@Data@CascadeClassifier@cv@@V?$allocator@UDTree@Data@CascadeClassifier@cv@@@std@@@std@@@std@@QBEABUDTree@Data@CascadeClassifier@cv@@XZ PROC ; std::_Vector_const_iterator<std::_Vector_val<cv::CascadeClassifier::Data::DTree,std::allocator<cv::CascadeClassifier::Data::DTree> > >::operator*, COMDAT
; _this$ = eax

; 64   :  #if _ITERATOR_DEBUG_LEVEL == 2
; 65   : 		if (this->_Getcont() == 0
; 66   : 			|| this->_Ptr == 0
; 67   : 			|| this->_Ptr < ((_Myvec *)this->_Getcont())->_Myfirst
; 68   : 			|| ((_Myvec *)this->_Getcont())->_Mylast <= this->_Ptr)
; 69   : 			{	// report error
; 70   : 			_DEBUG_ERROR("vector iterator not dereferencable");
; 71   : 			_SCL_SECURE_OUT_OF_RANGE;
; 72   : 			}
; 73   : 
; 74   :  #elif _ITERATOR_DEBUG_LEVEL == 1
; 75   : 		_SCL_SECURE_VALIDATE(this->_Getcont() != 0);
; 76   : 		_SCL_SECURE_VALIDATE_RANGE(
; 77   : 			this->_Ptr != 0
; 78   : 			&& ((_Myvec *)this->_Getcont())->_Myfirst <= this->_Ptr
; 79   : 			&& this->_Ptr < ((_Myvec *)this->_Getcont())->_Mylast);
; 80   :  #endif /* _ITERATOR_DEBUG_LEVEL */
; 81   : 
; 82   : 		__analysis_assume(this->_Ptr != 0);
; 83   : 
; 84   : 		return (*this->_Ptr);

	mov	eax, DWORD PTR [eax]

; 85   : 		}

	ret	0
??D?$_Vector_const_iterator@V?$_Vector_val@UDTree@Data@CascadeClassifier@cv@@V?$allocator@UDTree@Data@CascadeClassifier@cv@@@std@@@std@@@std@@QBEABUDTree@Data@CascadeClassifier@cv@@XZ ENDP ; std::_Vector_const_iterator<std::_Vector_val<cv::CascadeClassifier::Data::DTree,std::allocator<cv::CascadeClassifier::Data::DTree> > >::operator*
; Function compile flags: /Ogtp
_TEXT	ENDS
;	COMDAT ??9?$_Vector_const_iterator@V?$_Vector_val@UStage@Data@CascadeClassifier@cv@@V?$allocator@UStage@Data@CascadeClassifier@cv@@@std@@@std@@@std@@QBE_NABV01@@Z
_TEXT	SEGMENT
??9?$_Vector_const_iterator@V?$_Vector_val@UStage@Data@CascadeClassifier@cv@@V?$allocator@UStage@Data@CascadeClassifier@cv@@@std@@@std@@@std@@QBE_NABV01@@Z PROC ; std::_Vector_const_iterator<std::_Vector_val<cv::CascadeClassifier::Data::Stage,std::allocator<cv::CascadeClassifier::Data::Stage> > >::operator!=, COMDAT
; _this$ = eax
; __Right$ = edx

; 208  : 		return (!(*this == _Right));

	mov	ecx, DWORD PTR [eax]
	xor	eax, eax
	cmp	ecx, DWORD PTR [edx]
	setne	al

; 209  : 		}

	ret	0
??9?$_Vector_const_iterator@V?$_Vector_val@UStage@Data@CascadeClassifier@cv@@V?$allocator@UStage@Data@CascadeClassifier@cv@@@std@@@std@@@std@@QBE_NABV01@@Z ENDP ; std::_Vector_const_iterator<std::_Vector_val<cv::CascadeClassifier::Data::Stage,std::allocator<cv::CascadeClassifier::Data::Stage> > >::operator!=
; Function compile flags: /Ogtp
_TEXT	ENDS
;	COMDAT ??E?$_Vector_const_iterator@V?$_Vector_val@UStage@Data@CascadeClassifier@cv@@V?$allocator@UStage@Data@CascadeClassifier@cv@@@std@@@std@@@std@@QAEAAV01@XZ
_TEXT	SEGMENT
??E?$_Vector_const_iterator@V?$_Vector_val@UStage@Data@CascadeClassifier@cv@@V?$allocator@UStage@Data@CascadeClassifier@cv@@@std@@@std@@@std@@QAEAAV01@XZ PROC ; std::_Vector_const_iterator<std::_Vector_val<cv::CascadeClassifier::Data::Stage,std::allocator<cv::CascadeClassifier::Data::Stage> > >::operator++, COMDAT
; _this$ = eax

; 94   :  #if _ITERATOR_DEBUG_LEVEL == 2
; 95   : 		if (this->_Getcont() == 0
; 96   : 			|| this->_Ptr == 0
; 97   : 			|| ((_Myvec *)this->_Getcont())->_Mylast <= this->_Ptr)
; 98   : 			{	// report error
; 99   : 			_DEBUG_ERROR("vector iterator not incrementable");
; 100  : 			_SCL_SECURE_OUT_OF_RANGE;
; 101  : 			}
; 102  : 
; 103  :  #elif _ITERATOR_DEBUG_LEVEL == 1
; 104  : 		_SCL_SECURE_VALIDATE(this->_Getcont() != 0);
; 105  : 		_SCL_SECURE_VALIDATE_RANGE(
; 106  : 			this->_Ptr != 0
; 107  : 			&& this->_Ptr < ((_Myvec *)this->_Getcont())->_Mylast);
; 108  :  #endif /* _ITERATOR_DEBUG_LEVEL */
; 109  : 
; 110  : 		++this->_Ptr;

	add	DWORD PTR [eax], 12			; 0000000cH

; 111  : 		return (*this);
; 112  : 		}

	ret	0
??E?$_Vector_const_iterator@V?$_Vector_val@UStage@Data@CascadeClassifier@cv@@V?$allocator@UStage@Data@CascadeClassifier@cv@@@std@@@std@@@std@@QAEAAV01@XZ ENDP ; std::_Vector_const_iterator<std::_Vector_val<cv::CascadeClassifier::Data::Stage,std::allocator<cv::CascadeClassifier::Data::Stage> > >::operator++
; Function compile flags: /Ogtp
_TEXT	ENDS
;	COMDAT ??D?$_Vector_const_iterator@V?$_Vector_val@UStage@Data@CascadeClassifier@cv@@V?$allocator@UStage@Data@CascadeClassifier@cv@@@std@@@std@@@std@@QBEABUStage@Data@CascadeClassifier@cv@@XZ
_TEXT	SEGMENT
??D?$_Vector_const_iterator@V?$_Vector_val@UStage@Data@CascadeClassifier@cv@@V?$allocator@UStage@Data@CascadeClassifier@cv@@@std@@@std@@@std@@QBEABUStage@Data@CascadeClassifier@cv@@XZ PROC ; std::_Vector_const_iterator<std::_Vector_val<cv::CascadeClassifier::Data::Stage,std::allocator<cv::CascadeClassifier::Data::Stage> > >::operator*, COMDAT
; _this$ = eax

; 64   :  #if _ITERATOR_DEBUG_LEVEL == 2
; 65   : 		if (this->_Getcont() == 0
; 66   : 			|| this->_Ptr == 0
; 67   : 			|| this->_Ptr < ((_Myvec *)this->_Getcont())->_Myfirst
; 68   : 			|| ((_Myvec *)this->_Getcont())->_Mylast <= this->_Ptr)
; 69   : 			{	// report error
; 70   : 			_DEBUG_ERROR("vector iterator not dereferencable");
; 71   : 			_SCL_SECURE_OUT_OF_RANGE;
; 72   : 			}
; 73   : 
; 74   :  #elif _ITERATOR_DEBUG_LEVEL == 1
; 75   : 		_SCL_SECURE_VALIDATE(this->_Getcont() != 0);
; 76   : 		_SCL_SECURE_VALIDATE_RANGE(
; 77   : 			this->_Ptr != 0
; 78   : 			&& ((_Myvec *)this->_Getcont())->_Myfirst <= this->_Ptr
; 79   : 			&& this->_Ptr < ((_Myvec *)this->_Getcont())->_Mylast);
; 80   :  #endif /* _ITERATOR_DEBUG_LEVEL */
; 81   : 
; 82   : 		__analysis_assume(this->_Ptr != 0);
; 83   : 
; 84   : 		return (*this->_Ptr);

	mov	eax, DWORD PTR [eax]

; 85   : 		}

	ret	0
??D?$_Vector_const_iterator@V?$_Vector_val@UStage@Data@CascadeClassifier@cv@@V?$allocator@UStage@Data@CascadeClassifier@cv@@@std@@@std@@@std@@QBEABUStage@Data@CascadeClassifier@cv@@XZ ENDP ; std::_Vector_const_iterator<std::_Vector_val<cv::CascadeClassifier::Data::Stage,std::allocator<cv::CascadeClassifier::Data::Stage> > >::operator*
; Function compile flags: /Ogtp
_TEXT	ENDS
;	COMDAT ??E?$_Vector_const_iterator@V?$_Vector_val@HV?$allocator@H@std@@@std@@@std@@QAEAAV01@XZ
_TEXT	SEGMENT
??E?$_Vector_const_iterator@V?$_Vector_val@HV?$allocator@H@std@@@std@@@std@@QAEAAV01@XZ PROC ; std::_Vector_const_iterator<std::_Vector_val<int,std::allocator<int> > >::operator++, COMDAT
; _this$ = eax

; 94   :  #if _ITERATOR_DEBUG_LEVEL == 2
; 95   : 		if (this->_Getcont() == 0
; 96   : 			|| this->_Ptr == 0
; 97   : 			|| ((_Myvec *)this->_Getcont())->_Mylast <= this->_Ptr)
; 98   : 			{	// report error
; 99   : 			_DEBUG_ERROR("vector iterator not incrementable");
; 100  : 			_SCL_SECURE_OUT_OF_RANGE;
; 101  : 			}
; 102  : 
; 103  :  #elif _ITERATOR_DEBUG_LEVEL == 1
; 104  : 		_SCL_SECURE_VALIDATE(this->_Getcont() != 0);
; 105  : 		_SCL_SECURE_VALIDATE_RANGE(
; 106  : 			this->_Ptr != 0
; 107  : 			&& this->_Ptr < ((_Myvec *)this->_Getcont())->_Mylast);
; 108  :  #endif /* _ITERATOR_DEBUG_LEVEL */
; 109  : 
; 110  : 		++this->_Ptr;

	add	DWORD PTR [eax], 4

; 111  : 		return (*this);
; 112  : 		}

	ret	0
??E?$_Vector_const_iterator@V?$_Vector_val@HV?$allocator@H@std@@@std@@@std@@QAEAAV01@XZ ENDP ; std::_Vector_const_iterator<std::_Vector_val<int,std::allocator<int> > >::operator++
; Function compile flags: /Ogtp
_TEXT	ENDS
;	COMDAT ??D?$_Vector_const_iterator@V?$_Vector_val@HV?$allocator@H@std@@@std@@@std@@QBEABHXZ
_TEXT	SEGMENT
??D?$_Vector_const_iterator@V?$_Vector_val@HV?$allocator@H@std@@@std@@@std@@QBEABHXZ PROC ; std::_Vector_const_iterator<std::_Vector_val<int,std::allocator<int> > >::operator*, COMDAT
; _this$ = eax

; 64   :  #if _ITERATOR_DEBUG_LEVEL == 2
; 65   : 		if (this->_Getcont() == 0
; 66   : 			|| this->_Ptr == 0
; 67   : 			|| this->_Ptr < ((_Myvec *)this->_Getcont())->_Myfirst
; 68   : 			|| ((_Myvec *)this->_Getcont())->_Mylast <= this->_Ptr)
; 69   : 			{	// report error
; 70   : 			_DEBUG_ERROR("vector iterator not dereferencable");
; 71   : 			_SCL_SECURE_OUT_OF_RANGE;
; 72   : 			}
; 73   : 
; 74   :  #elif _ITERATOR_DEBUG_LEVEL == 1
; 75   : 		_SCL_SECURE_VALIDATE(this->_Getcont() != 0);
; 76   : 		_SCL_SECURE_VALIDATE_RANGE(
; 77   : 			this->_Ptr != 0
; 78   : 			&& ((_Myvec *)this->_Getcont())->_Myfirst <= this->_Ptr
; 79   : 			&& this->_Ptr < ((_Myvec *)this->_Getcont())->_Mylast);
; 80   :  #endif /* _ITERATOR_DEBUG_LEVEL */
; 81   : 
; 82   : 		__analysis_assume(this->_Ptr != 0);
; 83   : 
; 84   : 		return (*this->_Ptr);

	mov	eax, DWORD PTR [eax]

; 85   : 		}

	ret	0
??D?$_Vector_const_iterator@V?$_Vector_val@HV?$allocator@H@std@@@std@@@std@@QBEABHXZ ENDP ; std::_Vector_const_iterator<std::_Vector_val<int,std::allocator<int> > >::operator*
; Function compile flags: /Ogtp
; File c:\programs & apps\visual studio 10\vc\include\xmemory
_TEXT	ENDS
;	COMDAT ?destroy@?$allocator@V?$Vec@H$03@cv@@@std@@QAEXPAV?$Vec@H$03@cv@@@Z
_TEXT	SEGMENT
?destroy@?$allocator@V?$Vec@H$03@cv@@@std@@QAEXPAV?$Vec@H$03@cv@@@Z PROC ; std::allocator<cv::Vec<int,4> >::destroy, COMDAT

; 213  : 		_Destroy(_Ptr);
; 214  : 		}

	ret	0
?destroy@?$allocator@V?$Vec@H$03@cv@@@std@@QAEXPAV?$Vec@H$03@cv@@@Z ENDP ; std::allocator<cv::Vec<int,4> >::destroy
; Function compile flags: /Ogtp
_TEXT	ENDS
;	COMDAT ?destroy@?$allocator@V?$vector@V?$Point_@H@cv@@V?$allocator@V?$Point_@H@cv@@@std@@@std@@@std@@QAEXPAV?$vector@V?$Point_@H@cv@@V?$allocator@V?$Point_@H@cv@@@std@@@2@@Z
_TEXT	SEGMENT
?destroy@?$allocator@V?$vector@V?$Point_@H@cv@@V?$allocator@V?$Point_@H@cv@@@std@@@std@@@std@@QAEXPAV?$vector@V?$Point_@H@cv@@V?$allocator@V?$Point_@H@cv@@@std@@@2@@Z PROC ; std::allocator<std::vector<cv::Point_<int>,std::allocator<cv::Point_<int> > > >::destroy, COMDAT
; __Ptr$ = esi

; 213  : 		_Destroy(_Ptr);

	mov	eax, DWORD PTR [esi]
	test	eax, eax
	je	SHORT $LN15@destroy
	push	eax
	call	DWORD PTR __imp_??3@YAXPAX@Z
	add	esp, 4
$LN15@destroy:
	mov	DWORD PTR [esi], 0
	mov	DWORD PTR [esi+4], 0
	mov	DWORD PTR [esi+8], 0

; 214  : 		}

	ret	0
?destroy@?$allocator@V?$vector@V?$Point_@H@cv@@V?$allocator@V?$Point_@H@cv@@@std@@@std@@@std@@QAEXPAV?$vector@V?$Point_@H@cv@@V?$allocator@V?$Point_@H@cv@@@std@@@2@@Z ENDP ; std::allocator<std::vector<cv::Point_<int>,std::allocator<cv::Point_<int> > > >::destroy
; Function compile flags: /Ogtp
_TEXT	ENDS
;	COMDAT ?destroy@?$allocator@V?$Rect_@H@cv@@@std@@QAEXPAV?$Rect_@H@cv@@@Z
_TEXT	SEGMENT
?destroy@?$allocator@V?$Rect_@H@cv@@@std@@QAEXPAV?$Rect_@H@cv@@@Z PROC ; std::allocator<cv::Rect_<int> >::destroy, COMDAT

; 213  : 		_Destroy(_Ptr);
; 214  : 		}

	ret	0
?destroy@?$allocator@V?$Rect_@H@cv@@@std@@QAEXPAV?$Rect_@H@cv@@@Z ENDP ; std::allocator<cv::Rect_<int> >::destroy
; Function compile flags: /Ogtp
_TEXT	ENDS
;	COMDAT ?destroy@?$allocator@UDTreeNode@Data@CascadeClassifier@cv@@@std@@QAEXPAUDTreeNode@Data@CascadeClassifier@cv@@@Z
_TEXT	SEGMENT
?destroy@?$allocator@UDTreeNode@Data@CascadeClassifier@cv@@@std@@QAEXPAUDTreeNode@Data@CascadeClassifier@cv@@@Z PROC ; std::allocator<cv::CascadeClassifier::Data::DTreeNode>::destroy, COMDAT

; 213  : 		_Destroy(_Ptr);
; 214  : 		}

	ret	0
?destroy@?$allocator@UDTreeNode@Data@CascadeClassifier@cv@@@std@@QAEXPAUDTreeNode@Data@CascadeClassifier@cv@@@Z ENDP ; std::allocator<cv::CascadeClassifier::Data::DTreeNode>::destroy
; Function compile flags: /Ogtp
_TEXT	ENDS
;	COMDAT ?destroy@?$allocator@UDTree@Data@CascadeClassifier@cv@@@std@@QAEXPAUDTree@Data@CascadeClassifier@cv@@@Z
_TEXT	SEGMENT
?destroy@?$allocator@UDTree@Data@CascadeClassifier@cv@@@std@@QAEXPAUDTree@Data@CascadeClassifier@cv@@@Z PROC ; std::allocator<cv::CascadeClassifier::Data::DTree>::destroy, COMDAT

; 213  : 		_Destroy(_Ptr);
; 214  : 		}

	ret	0
?destroy@?$allocator@UDTree@Data@CascadeClassifier@cv@@@std@@QAEXPAUDTree@Data@CascadeClassifier@cv@@@Z ENDP ; std::allocator<cv::CascadeClassifier::Data::DTree>::destroy
; Function compile flags: /Ogtp
_TEXT	ENDS
;	COMDAT ?destroy@?$allocator@UStage@Data@CascadeClassifier@cv@@@std@@QAEXPAUStage@Data@CascadeClassifier@cv@@@Z
_TEXT	SEGMENT
?destroy@?$allocator@UStage@Data@CascadeClassifier@cv@@@std@@QAEXPAUStage@Data@CascadeClassifier@cv@@@Z PROC ; std::allocator<cv::CascadeClassifier::Data::Stage>::destroy, COMDAT

; 213  : 		_Destroy(_Ptr);
; 214  : 		}

	ret	0
?destroy@?$allocator@UStage@Data@CascadeClassifier@cv@@@std@@QAEXPAUStage@Data@CascadeClassifier@cv@@@Z ENDP ; std::allocator<cv::CascadeClassifier::Data::Stage>::destroy
; Function compile flags: /Ogtp
_TEXT	ENDS
;	COMDAT ??$_Dest_val@V?$allocator@V?$Vec@H$03@cv@@@std@@V?$Vec@H$03@cv@@@std@@YAXAAV?$allocator@V?$Vec@H$03@cv@@@0@PAV?$Vec@H$03@cv@@@Z
_TEXT	SEGMENT
??$_Dest_val@V?$allocator@V?$Vec@H$03@cv@@@std@@V?$Vec@H$03@cv@@@std@@YAXAAV?$allocator@V?$Vec@H$03@cv@@@0@PAV?$Vec@H$03@cv@@@Z PROC ; std::_Dest_val<std::allocator<cv::Vec<int,4> >,cv::Vec<int,4> >, COMDAT

; 287  : 	_Alval.destroy(_Pdest);
; 288  : 	}

	ret	0
??$_Dest_val@V?$allocator@V?$Vec@H$03@cv@@@std@@V?$Vec@H$03@cv@@@std@@YAXAAV?$allocator@V?$Vec@H$03@cv@@@0@PAV?$Vec@H$03@cv@@@Z ENDP ; std::_Dest_val<std::allocator<cv::Vec<int,4> >,cv::Vec<int,4> >
; Function compile flags: /Ogtp
_TEXT	ENDS
;	COMDAT ??$_Dest_val@V?$allocator@V?$vector@V?$Point_@H@cv@@V?$allocator@V?$Point_@H@cv@@@std@@@std@@@std@@V?$vector@V?$Point_@H@cv@@V?$allocator@V?$Point_@H@cv@@@std@@@2@@std@@YAXAAV?$allocator@V?$vector@V?$Point_@H@cv@@V?$allocator@V?$Point_@H@cv@@@std@@@std@@@0@PAV?$vector@V?$Point_@H@cv@@V?$allocator@V?$Point_@H@cv@@@std@@@0@@Z
_TEXT	SEGMENT
??$_Dest_val@V?$allocator@V?$vector@V?$Point_@H@cv@@V?$allocator@V?$Point_@H@cv@@@std@@@std@@@std@@V?$vector@V?$Point_@H@cv@@V?$allocator@V?$Point_@H@cv@@@std@@@2@@std@@YAXAAV?$allocator@V?$vector@V?$Point_@H@cv@@V?$allocator@V?$Point_@H@cv@@@std@@@std@@@0@PAV?$vector@V?$Point_@H@cv@@V?$allocator@V?$Point_@H@cv@@@std@@@0@@Z PROC ; std::_Dest_val<std::allocator<std::vector<cv::Point_<int>,std::allocator<cv::Point_<int> > > >,std::vector<cv::Point_<int>,std::allocator<cv::Point_<int> > > >, COMDAT
; __Pdest$ = esi

; 287  : 	_Alval.destroy(_Pdest);

	mov	eax, DWORD PTR [esi]
	test	eax, eax
	je	SHORT $LN17@Dest_val
	push	eax
	call	DWORD PTR __imp_??3@YAXPAX@Z
	add	esp, 4
$LN17@Dest_val:
	mov	DWORD PTR [esi], 0
	mov	DWORD PTR [esi+4], 0
	mov	DWORD PTR [esi+8], 0

; 288  : 	}

	ret	0
??$_Dest_val@V?$allocator@V?$vector@V?$Point_@H@cv@@V?$allocator@V?$Point_@H@cv@@@std@@@std@@@std@@V?$vector@V?$Point_@H@cv@@V?$allocator@V?$Point_@H@cv@@@std@@@2@@std@@YAXAAV?$allocator@V?$vector@V?$Point_@H@cv@@V?$allocator@V?$Point_@H@cv@@@std@@@std@@@0@PAV?$vector@V?$Point_@H@cv@@V?$allocator@V?$Point_@H@cv@@@std@@@0@@Z ENDP ; std::_Dest_val<std::allocator<std::vector<cv::Point_<int>,std::allocator<cv::Point_<int> > > >,std::vector<cv::Point_<int>,std::allocator<cv::Point_<int> > > >
; Function compile flags: /Ogtp
_TEXT	ENDS
;	COMDAT ??$_Dest_val@V?$allocator@V?$Rect_@H@cv@@@std@@V?$Rect_@H@cv@@@std@@YAXAAV?$allocator@V?$Rect_@H@cv@@@0@PAV?$Rect_@H@cv@@@Z
_TEXT	SEGMENT
??$_Dest_val@V?$allocator@V?$Rect_@H@cv@@@std@@V?$Rect_@H@cv@@@std@@YAXAAV?$allocator@V?$Rect_@H@cv@@@0@PAV?$Rect_@H@cv@@@Z PROC ; std::_Dest_val<std::allocator<cv::Rect_<int> >,cv::Rect_<int> >, COMDAT

; 287  : 	_Alval.destroy(_Pdest);
; 288  : 	}

	ret	0
??$_Dest_val@V?$allocator@V?$Rect_@H@cv@@@std@@V?$Rect_@H@cv@@@std@@YAXAAV?$allocator@V?$Rect_@H@cv@@@0@PAV?$Rect_@H@cv@@@Z ENDP ; std::_Dest_val<std::allocator<cv::Rect_<int> >,cv::Rect_<int> >
; Function compile flags: /Ogtp
_TEXT	ENDS
;	COMDAT ??$_Dest_val@V?$allocator@UDTreeNode@Data@CascadeClassifier@cv@@@std@@UDTreeNode@Data@CascadeClassifier@cv@@@std@@YAXAAV?$allocator@UDTreeNode@Data@CascadeClassifier@cv@@@0@PAUDTreeNode@Data@CascadeClassifier@cv@@@Z
_TEXT	SEGMENT
??$_Dest_val@V?$allocator@UDTreeNode@Data@CascadeClassifier@cv@@@std@@UDTreeNode@Data@CascadeClassifier@cv@@@std@@YAXAAV?$allocator@UDTreeNode@Data@CascadeClassifier@cv@@@0@PAUDTreeNode@Data@CascadeClassifier@cv@@@Z PROC ; std::_Dest_val<std::allocator<cv::CascadeClassifier::Data::DTreeNode>,cv::CascadeClassifier::Data::DTreeNode>, COMDAT

; 287  : 	_Alval.destroy(_Pdest);
; 288  : 	}

	ret	0
??$_Dest_val@V?$allocator@UDTreeNode@Data@CascadeClassifier@cv@@@std@@UDTreeNode@Data@CascadeClassifier@cv@@@std@@YAXAAV?$allocator@UDTreeNode@Data@CascadeClassifier@cv@@@0@PAUDTreeNode@Data@CascadeClassifier@cv@@@Z ENDP ; std::_Dest_val<std::allocator<cv::CascadeClassifier::Data::DTreeNode>,cv::CascadeClassifier::Data::DTreeNode>
; Function compile flags: /Ogtp
_TEXT	ENDS
;	COMDAT ??$_Dest_val@V?$allocator@UDTree@Data@CascadeClassifier@cv@@@std@@UDTree@Data@CascadeClassifier@cv@@@std@@YAXAAV?$allocator@UDTree@Data@CascadeClassifier@cv@@@0@PAUDTree@Data@CascadeClassifier@cv@@@Z
_TEXT	SEGMENT
??$_Dest_val@V?$allocator@UDTree@Data@CascadeClassifier@cv@@@std@@UDTree@Data@CascadeClassifier@cv@@@std@@YAXAAV?$allocator@UDTree@Data@CascadeClassifier@cv@@@0@PAUDTree@Data@CascadeClassifier@cv@@@Z PROC ; std::_Dest_val<std::allocator<cv::CascadeClassifier::Data::DTree>,cv::CascadeClassifier::Data::DTree>, COMDAT

; 287  : 	_Alval.destroy(_Pdest);
; 288  : 	}

	ret	0
??$_Dest_val@V?$allocator@UDTree@Data@CascadeClassifier@cv@@@std@@UDTree@Data@CascadeClassifier@cv@@@std@@YAXAAV?$allocator@UDTree@Data@CascadeClassifier@cv@@@0@PAUDTree@Data@CascadeClassifier@cv@@@Z ENDP ; std::_Dest_val<std::allocator<cv::CascadeClassifier::Data::DTree>,cv::CascadeClassifier::Data::DTree>
; Function compile flags: /Ogtp
_TEXT	ENDS
;	COMDAT ??$_Dest_val@V?$allocator@UStage@Data@CascadeClassifier@cv@@@std@@UStage@Data@CascadeClassifier@cv@@@std@@YAXAAV?$allocator@UStage@Data@CascadeClassifier@cv@@@0@PAUStage@Data@CascadeClassifier@cv@@@Z
_TEXT	SEGMENT
??$_Dest_val@V?$allocator@UStage@Data@CascadeClassifier@cv@@@std@@UStage@Data@CascadeClassifier@cv@@@std@@YAXAAV?$allocator@UStage@Data@CascadeClassifier@cv@@@0@PAUStage@Data@CascadeClassifier@cv@@@Z PROC ; std::_Dest_val<std::allocator<cv::CascadeClassifier::Data::Stage>,cv::CascadeClassifier::Data::Stage>, COMDAT

; 287  : 	_Alval.destroy(_Pdest);
; 288  : 	}

	ret	0
??$_Dest_val@V?$allocator@UStage@Data@CascadeClassifier@cv@@@std@@UStage@Data@CascadeClassifier@cv@@@std@@YAXAAV?$allocator@UStage@Data@CascadeClassifier@cv@@@0@PAUStage@Data@CascadeClassifier@cv@@@Z ENDP ; std::_Dest_val<std::allocator<cv::CascadeClassifier::Data::Stage>,cv::CascadeClassifier::Data::Stage>
; Function compile flags: /Ogtp
; File c:\programs & apps\visual studio 10\vc\include\xutility
_TEXT	ENDS
;	COMDAT ??$_Ptr_cat@V?$_Vector_const_iterator@V?$_Vector_val@MV?$allocator@M@std@@@std@@@std@@PAM@std@@YA?AU_Nonscalar_ptr_iterator_tag@0@AAV?$_Vector_const_iterator@V?$_Vector_val@MV?$allocator@M@std@@@std@@@0@AAPAM@Z
_TEXT	SEGMENT
__Cat$ = -1						; size = 1
??$_Ptr_cat@V?$_Vector_const_iterator@V?$_Vector_val@MV?$allocator@M@std@@@std@@@std@@PAM@std@@YA?AU_Nonscalar_ptr_iterator_tag@0@AAV?$_Vector_const_iterator@V?$_Vector_val@MV?$allocator@M@std@@@std@@@0@AAPAM@Z PROC ; std::_Ptr_cat<std::_Vector_const_iterator<std::_Vector_val<float,std::allocator<float> > >,float *>, COMDAT

; 485  : 	{	// return pointer category from arbitrary arguments

	push	ebp
	mov	ebp, esp
	push	ecx

; 486  : 	_Nonscalar_ptr_iterator_tag _Cat;
; 487  : 	return (_Cat);

	mov	al, BYTE PTR __Cat$[ebp]

; 488  : 	}

	mov	esp, ebp
	pop	ebp
	ret	0
??$_Ptr_cat@V?$_Vector_const_iterator@V?$_Vector_val@MV?$allocator@M@std@@@std@@@std@@PAM@std@@YA?AU_Nonscalar_ptr_iterator_tag@0@AAV?$_Vector_const_iterator@V?$_Vector_val@MV?$allocator@M@std@@@std@@@0@AAPAM@Z ENDP ; std::_Ptr_cat<std::_Vector_const_iterator<std::_Vector_val<float,std::allocator<float> > >,float *>
; Function compile flags: /Ogtp
_TEXT	ENDS
;	COMDAT ??$_Ptr_cat@V?$_Vector_const_iterator@V?$_Vector_val@UDTreeNode@Data@CascadeClassifier@cv@@V?$allocator@UDTreeNode@Data@CascadeClassifier@cv@@@std@@@std@@@std@@PAUDTreeNode@Data@CascadeClassifier@cv@@@std@@YA?AU_Nonscalar_ptr_iterator_tag@0@AAV?$_Vector_const_iterator@V?$_Vector_val@UDTreeNode@Data@CascadeClassifier@cv@@V?$allocator@UDTreeNode@Data@CascadeClassifier@cv@@@std@@@std@@@0@AAPAUDTreeNode@Data@CascadeClassifier@cv@@@Z
_TEXT	SEGMENT
__Cat$ = -1						; size = 1
??$_Ptr_cat@V?$_Vector_const_iterator@V?$_Vector_val@UDTreeNode@Data@CascadeClassifier@cv@@V?$allocator@UDTreeNode@Data@CascadeClassifier@cv@@@std@@@std@@@std@@PAUDTreeNode@Data@CascadeClassifier@cv@@@std@@YA?AU_Nonscalar_ptr_iterator_tag@0@AAV?$_Vector_const_iterator@V?$_Vector_val@UDTreeNode@Data@CascadeClassifier@cv@@V?$allocator@UDTreeNode@Data@CascadeClassifier@cv@@@std@@@std@@@0@AAPAUDTreeNode@Data@CascadeClassifier@cv@@@Z PROC ; std::_Ptr_cat<std::_Vector_const_iterator<std::_Vector_val<cv::CascadeClassifier::Data::DTreeNode,std::allocator<cv::CascadeClassifier::Data::DTreeNode> > >,cv::CascadeClassifier::Data::DTreeNode *>, COMDAT

; 485  : 	{	// return pointer category from arbitrary arguments

	push	ebp
	mov	ebp, esp
	push	ecx

; 486  : 	_Nonscalar_ptr_iterator_tag _Cat;
; 487  : 	return (_Cat);

	mov	al, BYTE PTR __Cat$[ebp]

; 488  : 	}

	mov	esp, ebp
	pop	ebp
	ret	0
??$_Ptr_cat@V?$_Vector_const_iterator@V?$_Vector_val@UDTreeNode@Data@CascadeClassifier@cv@@V?$allocator@UDTreeNode@Data@CascadeClassifier@cv@@@std@@@std@@@std@@PAUDTreeNode@Data@CascadeClassifier@cv@@@std@@YA?AU_Nonscalar_ptr_iterator_tag@0@AAV?$_Vector_const_iterator@V?$_Vector_val@UDTreeNode@Data@CascadeClassifier@cv@@V?$allocator@UDTreeNode@Data@CascadeClassifier@cv@@@std@@@std@@@0@AAPAUDTreeNode@Data@CascadeClassifier@cv@@@Z ENDP ; std::_Ptr_cat<std::_Vector_const_iterator<std::_Vector_val<cv::CascadeClassifier::Data::DTreeNode,std::allocator<cv::CascadeClassifier::Data::DTreeNode> > >,cv::CascadeClassifier::Data::DTreeNode *>
; Function compile flags: /Ogtp
_TEXT	ENDS
;	COMDAT ??$_Ptr_cat@V?$_Vector_const_iterator@V?$_Vector_val@UDTree@Data@CascadeClassifier@cv@@V?$allocator@UDTree@Data@CascadeClassifier@cv@@@std@@@std@@@std@@PAUDTree@Data@CascadeClassifier@cv@@@std@@YA?AU_Nonscalar_ptr_iterator_tag@0@AAV?$_Vector_const_iterator@V?$_Vector_val@UDTree@Data@CascadeClassifier@cv@@V?$allocator@UDTree@Data@CascadeClassifier@cv@@@std@@@std@@@0@AAPAUDTree@Data@CascadeClassifier@cv@@@Z
_TEXT	SEGMENT
__Cat$ = -1						; size = 1
??$_Ptr_cat@V?$_Vector_const_iterator@V?$_Vector_val@UDTree@Data@CascadeClassifier@cv@@V?$allocator@UDTree@Data@CascadeClassifier@cv@@@std@@@std@@@std@@PAUDTree@Data@CascadeClassifier@cv@@@std@@YA?AU_Nonscalar_ptr_iterator_tag@0@AAV?$_Vector_const_iterator@V?$_Vector_val@UDTree@Data@CascadeClassifier@cv@@V?$allocator@UDTree@Data@CascadeClassifier@cv@@@std@@@std@@@0@AAPAUDTree@Data@CascadeClassifier@cv@@@Z PROC ; std::_Ptr_cat<std::_Vector_const_iterator<std::_Vector_val<cv::CascadeClassifier::Data::DTree,std::allocator<cv::CascadeClassifier::Data::DTree> > >,cv::CascadeClassifier::Data::DTree *>, COMDAT

; 485  : 	{	// return pointer category from arbitrary arguments

	push	ebp
	mov	ebp, esp
	push	ecx

; 486  : 	_Nonscalar_ptr_iterator_tag _Cat;
; 487  : 	return (_Cat);

	mov	al, BYTE PTR __Cat$[ebp]

; 488  : 	}

	mov	esp, ebp
	pop	ebp
	ret	0
??$_Ptr_cat@V?$_Vector_const_iterator@V?$_Vector_val@UDTree@Data@CascadeClassifier@cv@@V?$allocator@UDTree@Data@CascadeClassifier@cv@@@std@@@std@@@std@@PAUDTree@Data@CascadeClassifier@cv@@@std@@YA?AU_Nonscalar_ptr_iterator_tag@0@AAV?$_Vector_const_iterator@V?$_Vector_val@UDTree@Data@CascadeClassifier@cv@@V?$allocator@UDTree@Data@CascadeClassifier@cv@@@std@@@std@@@0@AAPAUDTree@Data@CascadeClassifier@cv@@@Z ENDP ; std::_Ptr_cat<std::_Vector_const_iterator<std::_Vector_val<cv::CascadeClassifier::Data::DTree,std::allocator<cv::CascadeClassifier::Data::DTree> > >,cv::CascadeClassifier::Data::DTree *>
; Function compile flags: /Ogtp
_TEXT	ENDS
;	COMDAT ??$_Ptr_cat@V?$_Vector_const_iterator@V?$_Vector_val@UStage@Data@CascadeClassifier@cv@@V?$allocator@UStage@Data@CascadeClassifier@cv@@@std@@@std@@@std@@PAUStage@Data@CascadeClassifier@cv@@@std@@YA?AU_Nonscalar_ptr_iterator_tag@0@AAV?$_Vector_const_iterator@V?$_Vector_val@UStage@Data@CascadeClassifier@cv@@V?$allocator@UStage@Data@CascadeClassifier@cv@@@std@@@std@@@0@AAPAUStage@Data@CascadeClassifier@cv@@@Z
_TEXT	SEGMENT
__Cat$ = -1						; size = 1
??$_Ptr_cat@V?$_Vector_const_iterator@V?$_Vector_val@UStage@Data@CascadeClassifier@cv@@V?$allocator@UStage@Data@CascadeClassifier@cv@@@std@@@std@@@std@@PAUStage@Data@CascadeClassifier@cv@@@std@@YA?AU_Nonscalar_ptr_iterator_tag@0@AAV?$_Vector_const_iterator@V?$_Vector_val@UStage@Data@CascadeClassifier@cv@@V?$allocator@UStage@Data@CascadeClassifier@cv@@@std@@@std@@@0@AAPAUStage@Data@CascadeClassifier@cv@@@Z PROC ; std::_Ptr_cat<std::_Vector_const_iterator<std::_Vector_val<cv::CascadeClassifier::Data::Stage,std::allocator<cv::CascadeClassifier::Data::Stage> > >,cv::CascadeClassifier::Data::Stage *>, COMDAT

; 485  : 	{	// return pointer category from arbitrary arguments

	push	ebp
	mov	ebp, esp
	push	ecx

; 486  : 	_Nonscalar_ptr_iterator_tag _Cat;
; 487  : 	return (_Cat);

	mov	al, BYTE PTR __Cat$[ebp]

; 488  : 	}

	mov	esp, ebp
	pop	ebp
	ret	0
??$_Ptr_cat@V?$_Vector_const_iterator@V?$_Vector_val@UStage@Data@CascadeClassifier@cv@@V?$allocator@UStage@Data@CascadeClassifier@cv@@@std@@@std@@@std@@PAUStage@Data@CascadeClassifier@cv@@@std@@YA?AU_Nonscalar_ptr_iterator_tag@0@AAV?$_Vector_const_iterator@V?$_Vector_val@UStage@Data@CascadeClassifier@cv@@V?$allocator@UStage@Data@CascadeClassifier@cv@@@std@@@std@@@0@AAPAUStage@Data@CascadeClassifier@cv@@@Z ENDP ; std::_Ptr_cat<std::_Vector_const_iterator<std::_Vector_val<cv::CascadeClassifier::Data::Stage,std::allocator<cv::CascadeClassifier::Data::Stage> > >,cv::CascadeClassifier::Data::Stage *>
; Function compile flags: /Ogtp
_TEXT	ENDS
;	COMDAT ??$_Ptr_cat@V?$_Vector_const_iterator@V?$_Vector_val@HV?$allocator@H@std@@@std@@@std@@PAH@std@@YA?AU_Nonscalar_ptr_iterator_tag@0@AAV?$_Vector_const_iterator@V?$_Vector_val@HV?$allocator@H@std@@@std@@@0@AAPAH@Z
_TEXT	SEGMENT
__Cat$ = -1						; size = 1
??$_Ptr_cat@V?$_Vector_const_iterator@V?$_Vector_val@HV?$allocator@H@std@@@std@@@std@@PAH@std@@YA?AU_Nonscalar_ptr_iterator_tag@0@AAV?$_Vector_const_iterator@V?$_Vector_val@HV?$allocator@H@std@@@std@@@0@AAPAH@Z PROC ; std::_Ptr_cat<std::_Vector_const_iterator<std::_Vector_val<int,std::allocator<int> > >,int *>, COMDAT

; 485  : 	{	// return pointer category from arbitrary arguments

	push	ebp
	mov	ebp, esp
	push	ecx

; 486  : 	_Nonscalar_ptr_iterator_tag _Cat;
; 487  : 	return (_Cat);

	mov	al, BYTE PTR __Cat$[ebp]

; 488  : 	}

	mov	esp, ebp
	pop	ebp
	ret	0
??$_Ptr_cat@V?$_Vector_const_iterator@V?$_Vector_val@HV?$allocator@H@std@@@std@@@std@@PAH@std@@YA?AU_Nonscalar_ptr_iterator_tag@0@AAV?$_Vector_const_iterator@V?$_Vector_val@HV?$allocator@H@std@@@std@@@0@AAPAH@Z ENDP ; std::_Ptr_cat<std::_Vector_const_iterator<std::_Vector_val<int,std::allocator<int> > >,int *>
; Function compile flags: /Ogtp
; File c:\programs & apps\opencv\opencv\build\include\opencv2\core\operations.hpp
_TEXT	ENDS
;	COMDAT ?delete_obj@?$Ptr@VMaskGenerator@CascadeClassifier@cv@@@cv@@QAEXXZ
_TEXT	SEGMENT
?delete_obj@?$Ptr@VMaskGenerator@CascadeClassifier@cv@@@cv@@QAEXXZ PROC ; cv::Ptr<cv::CascadeClassifier::MaskGenerator>::delete_obj, COMDAT
; _this$ = eax

; 2614 :     if( obj ) delete obj;

	mov	ecx, DWORD PTR [eax]
	test	ecx, ecx
	je	SHORT $LN4@delete_obj
	mov	edx, DWORD PTR [ecx]
	mov	eax, DWORD PTR [edx]
	push	1
	call	eax
$LN4@delete_obj:

; 2615 : }

	ret	0
?delete_obj@?$Ptr@VMaskGenerator@CascadeClassifier@cv@@@cv@@QAEXXZ ENDP ; cv::Ptr<cv::CascadeClassifier::MaskGenerator>::delete_obj
; Function compile flags: /Ogtp
_TEXT	ENDS
;	COMDAT ?delete_obj@?$Ptr@VFeatureEvaluator@cv@@@cv@@QAEXXZ
_TEXT	SEGMENT
?delete_obj@?$Ptr@VFeatureEvaluator@cv@@@cv@@QAEXXZ PROC ; cv::Ptr<cv::FeatureEvaluator>::delete_obj, COMDAT
; _this$ = eax

; 2614 :     if( obj ) delete obj;

	mov	ecx, DWORD PTR [eax]
	test	ecx, ecx
	je	SHORT $LN4@delete_obj@2
	mov	edx, DWORD PTR [ecx]
	mov	eax, DWORD PTR [edx]
	push	1
	call	eax
$LN4@delete_obj@2:

; 2615 : }

	ret	0
?delete_obj@?$Ptr@VFeatureEvaluator@cv@@@cv@@QAEXXZ ENDP ; cv::Ptr<cv::FeatureEvaluator>::delete_obj
_TEXT	ENDS
PUBLIC	__real@0000000000000000
EXTRN	__fltused:DWORD
;	COMDAT __real@0000000000000000
CONST	SEGMENT
__real@0000000000000000 DQ 00000000000000000r	; 0
; Function compile flags: /Ogtp
CONST	ENDS
;	COMDAT ??0?$Matx@N$03$00@cv@@QAE@XZ
_TEXT	SEGMENT
??0?$Matx@N$03$00@cv@@QAE@XZ PROC			; cv::Matx<double,4,1>::Matx<double,4,1>, COMDAT
; _this$ = eax

; 208  :     for(int i = 0; i < channels; i++) val[i] = _Tp(0);

	fldz
	fst	QWORD PTR [eax]
	fst	QWORD PTR [eax+8]
	fst	QWORD PTR [eax+16]
	fstp	QWORD PTR [eax+24]

; 209  : }

	ret	0
??0?$Matx@N$03$00@cv@@QAE@XZ ENDP			; cv::Matx<double,4,1>::Matx<double,4,1>
; Function compile flags: /Ogtp
; File c:\programs & apps\visual studio 10\vc\include\vector
_TEXT	ENDS
;	COMDAT ?_Compat@?$_Vector_const_iterator@V?$_Vector_val@HV?$allocator@H@std@@@std@@@std@@QBEXABV12@@Z
_TEXT	SEGMENT
?_Compat@?$_Vector_const_iterator@V?$_Vector_val@HV?$allocator@H@std@@@std@@@std@@QBEXABV12@@Z PROC ; std::_Vector_const_iterator<std::_Vector_val<int,std::allocator<int> > >::_Compat, COMDAT

; 253  : 		}

	ret	0
?_Compat@?$_Vector_const_iterator@V?$_Vector_val@HV?$allocator@H@std@@@std@@@std@@QBEXABV12@@Z ENDP ; std::_Vector_const_iterator<std::_Vector_val<int,std::allocator<int> > >::_Compat
; Function compile flags: /Ogtp
_TEXT	ENDS
;	COMDAT ??8?$_Vector_const_iterator@V?$_Vector_val@HV?$allocator@H@std@@@std@@@std@@QBE_NABV01@@Z
_TEXT	SEGMENT
??8?$_Vector_const_iterator@V?$_Vector_val@HV?$allocator@H@std@@@std@@@std@@QBE_NABV01@@Z PROC ; std::_Vector_const_iterator<std::_Vector_val<int,std::allocator<int> > >::operator==, COMDAT
; _this$ = eax
; __Right$ = edx

; 202  : 		_Compat(_Right);
; 203  : 		return (this->_Ptr == _Right._Ptr);

	mov	ecx, DWORD PTR [eax]
	xor	eax, eax
	cmp	ecx, DWORD PTR [edx]
	sete	al

; 204  : 		}

	ret	0
??8?$_Vector_const_iterator@V?$_Vector_val@HV?$allocator@H@std@@@std@@@std@@QBE_NABV01@@Z ENDP ; std::_Vector_const_iterator<std::_Vector_val<int,std::allocator<int> > >::operator==
; Function compile flags: /Ogtp
_TEXT	ENDS
;	COMDAT ??9?$_Vector_const_iterator@V?$_Vector_val@HV?$allocator@H@std@@@std@@@std@@QBE_NABV01@@Z
_TEXT	SEGMENT
??9?$_Vector_const_iterator@V?$_Vector_val@HV?$allocator@H@std@@@std@@@std@@QBE_NABV01@@Z PROC ; std::_Vector_const_iterator<std::_Vector_val<int,std::allocator<int> > >::operator!=, COMDAT
; _this$ = eax
; __Right$ = edx

; 208  : 		return (!(*this == _Right));

	mov	ecx, DWORD PTR [eax]
	xor	eax, eax
	cmp	ecx, DWORD PTR [edx]
	setne	al

; 209  : 		}

	ret	0
??9?$_Vector_const_iterator@V?$_Vector_val@HV?$allocator@H@std@@@std@@@std@@QBE_NABV01@@Z ENDP ; std::_Vector_const_iterator<std::_Vector_val<int,std::allocator<int> > >::operator!=
; Function compile flags: /Ogtp
; File c:\programs & apps\visual studio 10\vc\include\xmemory
_TEXT	ENDS
;	COMDAT ??$_Destroy_range@V?$allocator@V?$Vec@H$03@cv@@@std@@@std@@YAXPAV?$Vec@H$03@cv@@0AAV?$allocator@V?$Vec@H$03@cv@@@0@U_Nonscalar_ptr_iterator_tag@0@@Z
_TEXT	SEGMENT
___formal$ = 8						; size = 1
??$_Destroy_range@V?$allocator@V?$Vec@H$03@cv@@@std@@@std@@YAXPAV?$Vec@H$03@cv@@0AAV?$allocator@V?$Vec@H$03@cv@@@0@U_Nonscalar_ptr_iterator_tag@0@@Z PROC ; std::_Destroy_range<std::allocator<cv::Vec<int,4> > >, COMDAT

; 96   : 	for (; _First != _Last; ++_First)
; 97   : 		_Dest_val(_Al, _First);
; 98   : 	}

	ret	0
??$_Destroy_range@V?$allocator@V?$Vec@H$03@cv@@@std@@@std@@YAXPAV?$Vec@H$03@cv@@0AAV?$allocator@V?$Vec@H$03@cv@@@0@U_Nonscalar_ptr_iterator_tag@0@@Z ENDP ; std::_Destroy_range<std::allocator<cv::Vec<int,4> > >
; Function compile flags: /Ogtp
; File c:\programs & apps\visual studio 10\vc\include\xutility
_TEXT	ENDS
;	COMDAT ??$_Ptr_cat@V?$Vec@H$03@cv@@V12@@std@@YA?AU_Nonscalar_ptr_iterator_tag@0@PAV?$Vec@H$03@cv@@0@Z
_TEXT	SEGMENT
__Cat$ = -1						; size = 1
??$_Ptr_cat@V?$Vec@H$03@cv@@V12@@std@@YA?AU_Nonscalar_ptr_iterator_tag@0@PAV?$Vec@H$03@cv@@0@Z PROC ; std::_Ptr_cat<cv::Vec<int,4>,cv::Vec<int,4> >, COMDAT

; 516  : 	{	// return pointer category from pointers

	push	ebp
	mov	ebp, esp
	push	ecx

; 517  : 	typename _Ptr_cat_helper<_Elem1, _Elem2>::_Type _Cat;
; 518  : 	return (_Cat);

	mov	al, BYTE PTR __Cat$[ebp]

; 519  : 	}

	mov	esp, ebp
	pop	ebp
	ret	0
??$_Ptr_cat@V?$Vec@H$03@cv@@V12@@std@@YA?AU_Nonscalar_ptr_iterator_tag@0@PAV?$Vec@H$03@cv@@0@Z ENDP ; std::_Ptr_cat<cv::Vec<int,4>,cv::Vec<int,4> >
; Function compile flags: /Ogtp
; File c:\programs & apps\visual studio 10\vc\include\xmemory
_TEXT	ENDS
;	COMDAT ??$_Destroy_range@V?$allocator@V?$vector@V?$Point_@H@cv@@V?$allocator@V?$Point_@H@cv@@@std@@@std@@@std@@@std@@YAXPAV?$vector@V?$Point_@H@cv@@V?$allocator@V?$Point_@H@cv@@@std@@@0@0AAV?$allocator@V?$vector@V?$Point_@H@cv@@V?$allocator@V?$Point_@H@cv@@@std@@@std@@@0@U_Nonscalar_ptr_iterator_tag@0@@Z
_TEXT	SEGMENT
___formal$ = 8						; size = 1
??$_Destroy_range@V?$allocator@V?$vector@V?$Point_@H@cv@@V?$allocator@V?$Point_@H@cv@@@std@@@std@@@std@@@std@@YAXPAV?$vector@V?$Point_@H@cv@@V?$allocator@V?$Point_@H@cv@@@std@@@0@0AAV?$allocator@V?$vector@V?$Point_@H@cv@@V?$allocator@V?$Point_@H@cv@@@std@@@std@@@0@U_Nonscalar_ptr_iterator_tag@0@@Z PROC ; std::_Destroy_range<std::allocator<std::vector<cv::Point_<int>,std::allocator<cv::Point_<int> > > > >, COMDAT
; __First$ = eax
; __Last$ = ebx

; 95   : 	{	// destroy [_First, _Last), arbitrary type

	push	esi
	mov	esi, eax

; 96   : 	for (; _First != _Last; ++_First)

	cmp	esi, ebx
	je	SHORT $LN1@Destroy_ra
	push	edi
	xor	edi, edi
	npad	6
$LL3@Destroy_ra:

; 97   : 		_Dest_val(_Al, _First);

	mov	eax, DWORD PTR [esi]
	cmp	eax, edi
	je	SHORT $LN22@Destroy_ra
	push	eax
	call	DWORD PTR __imp_??3@YAXPAX@Z
	add	esp, 4
$LN22@Destroy_ra:
	mov	DWORD PTR [esi], edi
	mov	DWORD PTR [esi+4], edi
	mov	DWORD PTR [esi+8], edi
	add	esi, 16					; 00000010H
	cmp	esi, ebx
	jne	SHORT $LL3@Destroy_ra
	pop	edi
$LN1@Destroy_ra:
	pop	esi

; 98   : 	}

	ret	0
??$_Destroy_range@V?$allocator@V?$vector@V?$Point_@H@cv@@V?$allocator@V?$Point_@H@cv@@@std@@@std@@@std@@@std@@YAXPAV?$vector@V?$Point_@H@cv@@V?$allocator@V?$Point_@H@cv@@@std@@@0@0AAV?$allocator@V?$vector@V?$Point_@H@cv@@V?$allocator@V?$Point_@H@cv@@@std@@@std@@@0@U_Nonscalar_ptr_iterator_tag@0@@Z ENDP ; std::_Destroy_range<std::allocator<std::vector<cv::Point_<int>,std::allocator<cv::Point_<int> > > > >
; Function compile flags: /Ogtp
; File c:\programs & apps\visual studio 10\vc\include\xutility
_TEXT	ENDS
;	COMDAT ??$_Ptr_cat@V?$vector@V?$Point_@H@cv@@V?$allocator@V?$Point_@H@cv@@@std@@@std@@V12@@std@@YA?AU_Nonscalar_ptr_iterator_tag@0@PAV?$vector@V?$Point_@H@cv@@V?$allocator@V?$Point_@H@cv@@@std@@@0@0@Z
_TEXT	SEGMENT
__Cat$ = -1						; size = 1
??$_Ptr_cat@V?$vector@V?$Point_@H@cv@@V?$allocator@V?$Point_@H@cv@@@std@@@std@@V12@@std@@YA?AU_Nonscalar_ptr_iterator_tag@0@PAV?$vector@V?$Point_@H@cv@@V?$allocator@V?$Point_@H@cv@@@std@@@0@0@Z PROC ; std::_Ptr_cat<std::vector<cv::Point_<int>,std::allocator<cv::Point_<int> > >,std::vector<cv::Point_<int>,std::allocator<cv::Point_<int> > > >, COMDAT

; 516  : 	{	// return pointer category from pointers

	push	ebp
	mov	ebp, esp
	push	ecx

; 517  : 	typename _Ptr_cat_helper<_Elem1, _Elem2>::_Type _Cat;
; 518  : 	return (_Cat);

	mov	al, BYTE PTR __Cat$[ebp]

; 519  : 	}

	mov	esp, ebp
	pop	ebp
	ret	0
??$_Ptr_cat@V?$vector@V?$Point_@H@cv@@V?$allocator@V?$Point_@H@cv@@@std@@@std@@V12@@std@@YA?AU_Nonscalar_ptr_iterator_tag@0@PAV?$vector@V?$Point_@H@cv@@V?$allocator@V?$Point_@H@cv@@@std@@@0@0@Z ENDP ; std::_Ptr_cat<std::vector<cv::Point_<int>,std::allocator<cv::Point_<int> > >,std::vector<cv::Point_<int>,std::allocator<cv::Point_<int> > > >
; Function compile flags: /Ogtp
; File c:\programs & apps\visual studio 10\vc\include\xmemory
_TEXT	ENDS
;	COMDAT ??$_Destroy_range@V?$allocator@V?$Rect_@H@cv@@@std@@@std@@YAXPAV?$Rect_@H@cv@@0AAV?$allocator@V?$Rect_@H@cv@@@0@U_Nonscalar_ptr_iterator_tag@0@@Z
_TEXT	SEGMENT
___formal$ = 8						; size = 1
??$_Destroy_range@V?$allocator@V?$Rect_@H@cv@@@std@@@std@@YAXPAV?$Rect_@H@cv@@0AAV?$allocator@V?$Rect_@H@cv@@@0@U_Nonscalar_ptr_iterator_tag@0@@Z PROC ; std::_Destroy_range<std::allocator<cv::Rect_<int> > >, COMDAT

; 96   : 	for (; _First != _Last; ++_First)
; 97   : 		_Dest_val(_Al, _First);
; 98   : 	}

	ret	0
??$_Destroy_range@V?$allocator@V?$Rect_@H@cv@@@std@@@std@@YAXPAV?$Rect_@H@cv@@0AAV?$allocator@V?$Rect_@H@cv@@@0@U_Nonscalar_ptr_iterator_tag@0@@Z ENDP ; std::_Destroy_range<std::allocator<cv::Rect_<int> > >
; Function compile flags: /Ogtp
; File c:\programs & apps\visual studio 10\vc\include\xutility
_TEXT	ENDS
;	COMDAT ??$_Ptr_cat@V?$Rect_@H@cv@@V12@@std@@YA?AU_Nonscalar_ptr_iterator_tag@0@PAV?$Rect_@H@cv@@0@Z
_TEXT	SEGMENT
__Cat$ = -1						; size = 1
??$_Ptr_cat@V?$Rect_@H@cv@@V12@@std@@YA?AU_Nonscalar_ptr_iterator_tag@0@PAV?$Rect_@H@cv@@0@Z PROC ; std::_Ptr_cat<cv::Rect_<int>,cv::Rect_<int> >, COMDAT

; 516  : 	{	// return pointer category from pointers

	push	ebp
	mov	ebp, esp
	push	ecx

; 517  : 	typename _Ptr_cat_helper<_Elem1, _Elem2>::_Type _Cat;
; 518  : 	return (_Cat);

	mov	al, BYTE PTR __Cat$[ebp]

; 519  : 	}

	mov	esp, ebp
	pop	ebp
	ret	0
??$_Ptr_cat@V?$Rect_@H@cv@@V12@@std@@YA?AU_Nonscalar_ptr_iterator_tag@0@PAV?$Rect_@H@cv@@0@Z ENDP ; std::_Ptr_cat<cv::Rect_<int>,cv::Rect_<int> >
; Function compile flags: /Ogtp
; File c:\programs & apps\visual studio 10\vc\include\xmemory
_TEXT	ENDS
;	COMDAT ??$_Destroy_range@V?$allocator@M@std@@@std@@YAXPAM0AAV?$allocator@M@0@U_Scalar_ptr_iterator_tag@0@@Z
_TEXT	SEGMENT
___formal$ = 8						; size = 1
??$_Destroy_range@V?$allocator@M@std@@@std@@YAXPAM0AAV?$allocator@M@0@U_Scalar_ptr_iterator_tag@0@@Z PROC ; std::_Destroy_range<std::allocator<float> >, COMDAT

; 105  : 	}

	ret	0
??$_Destroy_range@V?$allocator@M@std@@@std@@YAXPAM0AAV?$allocator@M@0@U_Scalar_ptr_iterator_tag@0@@Z ENDP ; std::_Destroy_range<std::allocator<float> >
; Function compile flags: /Ogtp
; File c:\programs & apps\visual studio 10\vc\include\xutility
_TEXT	ENDS
;	COMDAT ??$_Ptr_cat@MM@std@@YA?AU_Scalar_ptr_iterator_tag@0@PAM0@Z
_TEXT	SEGMENT
__Cat$ = -1						; size = 1
??$_Ptr_cat@MM@std@@YA?AU_Scalar_ptr_iterator_tag@0@PAM0@Z PROC ; std::_Ptr_cat<float,float>, COMDAT

; 516  : 	{	// return pointer category from pointers

	push	ebp
	mov	ebp, esp
	push	ecx

; 517  : 	typename _Ptr_cat_helper<_Elem1, _Elem2>::_Type _Cat;
; 518  : 	return (_Cat);

	mov	al, BYTE PTR __Cat$[ebp]

; 519  : 	}

	mov	esp, ebp
	pop	ebp
	ret	0
??$_Ptr_cat@MM@std@@YA?AU_Scalar_ptr_iterator_tag@0@PAM0@Z ENDP ; std::_Ptr_cat<float,float>
; Function compile flags: /Ogtp
; File c:\programs & apps\visual studio 10\vc\include\xmemory
_TEXT	ENDS
;	COMDAT ??$_Destroy_range@V?$allocator@UDTreeNode@Data@CascadeClassifier@cv@@@std@@@std@@YAXPAUDTreeNode@Data@CascadeClassifier@cv@@0AAV?$allocator@UDTreeNode@Data@CascadeClassifier@cv@@@0@U_Nonscalar_ptr_iterator_tag@0@@Z
_TEXT	SEGMENT
___formal$ = 8						; size = 1
??$_Destroy_range@V?$allocator@UDTreeNode@Data@CascadeClassifier@cv@@@std@@@std@@YAXPAUDTreeNode@Data@CascadeClassifier@cv@@0AAV?$allocator@UDTreeNode@Data@CascadeClassifier@cv@@@0@U_Nonscalar_ptr_iterator_tag@0@@Z PROC ; std::_Destroy_range<std::allocator<cv::CascadeClassifier::Data::DTreeNode> >, COMDAT

; 96   : 	for (; _First != _Last; ++_First)
; 97   : 		_Dest_val(_Al, _First);
; 98   : 	}

	ret	0
??$_Destroy_range@V?$allocator@UDTreeNode@Data@CascadeClassifier@cv@@@std@@@std@@YAXPAUDTreeNode@Data@CascadeClassifier@cv@@0AAV?$allocator@UDTreeNode@Data@CascadeClassifier@cv@@@0@U_Nonscalar_ptr_iterator_tag@0@@Z ENDP ; std::_Destroy_range<std::allocator<cv::CascadeClassifier::Data::DTreeNode> >
; Function compile flags: /Ogtp
; File c:\programs & apps\visual studio 10\vc\include\xutility
_TEXT	ENDS
;	COMDAT ??$_Ptr_cat@UDTreeNode@Data@CascadeClassifier@cv@@U1234@@std@@YA?AU_Nonscalar_ptr_iterator_tag@0@PAUDTreeNode@Data@CascadeClassifier@cv@@0@Z
_TEXT	SEGMENT
__Cat$ = -1						; size = 1
??$_Ptr_cat@UDTreeNode@Data@CascadeClassifier@cv@@U1234@@std@@YA?AU_Nonscalar_ptr_iterator_tag@0@PAUDTreeNode@Data@CascadeClassifier@cv@@0@Z PROC ; std::_Ptr_cat<cv::CascadeClassifier::Data::DTreeNode,cv::CascadeClassifier::Data::DTreeNode>, COMDAT

; 516  : 	{	// return pointer category from pointers

	push	ebp
	mov	ebp, esp
	push	ecx

; 517  : 	typename _Ptr_cat_helper<_Elem1, _Elem2>::_Type _Cat;
; 518  : 	return (_Cat);

	mov	al, BYTE PTR __Cat$[ebp]

; 519  : 	}

	mov	esp, ebp
	pop	ebp
	ret	0
??$_Ptr_cat@UDTreeNode@Data@CascadeClassifier@cv@@U1234@@std@@YA?AU_Nonscalar_ptr_iterator_tag@0@PAUDTreeNode@Data@CascadeClassifier@cv@@0@Z ENDP ; std::_Ptr_cat<cv::CascadeClassifier::Data::DTreeNode,cv::CascadeClassifier::Data::DTreeNode>
; Function compile flags: /Ogtp
; File c:\programs & apps\visual studio 10\vc\include\xmemory
_TEXT	ENDS
;	COMDAT ??$_Destroy_range@V?$allocator@UDTree@Data@CascadeClassifier@cv@@@std@@@std@@YAXPAUDTree@Data@CascadeClassifier@cv@@0AAV?$allocator@UDTree@Data@CascadeClassifier@cv@@@0@U_Nonscalar_ptr_iterator_tag@0@@Z
_TEXT	SEGMENT
___formal$ = 8						; size = 1
??$_Destroy_range@V?$allocator@UDTree@Data@CascadeClassifier@cv@@@std@@@std@@YAXPAUDTree@Data@CascadeClassifier@cv@@0AAV?$allocator@UDTree@Data@CascadeClassifier@cv@@@0@U_Nonscalar_ptr_iterator_tag@0@@Z PROC ; std::_Destroy_range<std::allocator<cv::CascadeClassifier::Data::DTree> >, COMDAT

; 96   : 	for (; _First != _Last; ++_First)
; 97   : 		_Dest_val(_Al, _First);
; 98   : 	}

	ret	0
??$_Destroy_range@V?$allocator@UDTree@Data@CascadeClassifier@cv@@@std@@@std@@YAXPAUDTree@Data@CascadeClassifier@cv@@0AAV?$allocator@UDTree@Data@CascadeClassifier@cv@@@0@U_Nonscalar_ptr_iterator_tag@0@@Z ENDP ; std::_Destroy_range<std::allocator<cv::CascadeClassifier::Data::DTree> >
; Function compile flags: /Ogtp
; File c:\programs & apps\visual studio 10\vc\include\xutility
_TEXT	ENDS
;	COMDAT ??$_Ptr_cat@UDTree@Data@CascadeClassifier@cv@@U1234@@std@@YA?AU_Nonscalar_ptr_iterator_tag@0@PAUDTree@Data@CascadeClassifier@cv@@0@Z
_TEXT	SEGMENT
__Cat$ = -1						; size = 1
??$_Ptr_cat@UDTree@Data@CascadeClassifier@cv@@U1234@@std@@YA?AU_Nonscalar_ptr_iterator_tag@0@PAUDTree@Data@CascadeClassifier@cv@@0@Z PROC ; std::_Ptr_cat<cv::CascadeClassifier::Data::DTree,cv::CascadeClassifier::Data::DTree>, COMDAT

; 516  : 	{	// return pointer category from pointers

	push	ebp
	mov	ebp, esp
	push	ecx

; 517  : 	typename _Ptr_cat_helper<_Elem1, _Elem2>::_Type _Cat;
; 518  : 	return (_Cat);

	mov	al, BYTE PTR __Cat$[ebp]

; 519  : 	}

	mov	esp, ebp
	pop	ebp
	ret	0
??$_Ptr_cat@UDTree@Data@CascadeClassifier@cv@@U1234@@std@@YA?AU_Nonscalar_ptr_iterator_tag@0@PAUDTree@Data@CascadeClassifier@cv@@0@Z ENDP ; std::_Ptr_cat<cv::CascadeClassifier::Data::DTree,cv::CascadeClassifier::Data::DTree>
; Function compile flags: /Ogtp
; File c:\programs & apps\visual studio 10\vc\include\xmemory
_TEXT	ENDS
;	COMDAT ??$_Destroy_range@V?$allocator@UStage@Data@CascadeClassifier@cv@@@std@@@std@@YAXPAUStage@Data@CascadeClassifier@cv@@0AAV?$allocator@UStage@Data@CascadeClassifier@cv@@@0@U_Nonscalar_ptr_iterator_tag@0@@Z
_TEXT	SEGMENT
___formal$ = 8						; size = 1
??$_Destroy_range@V?$allocator@UStage@Data@CascadeClassifier@cv@@@std@@@std@@YAXPAUStage@Data@CascadeClassifier@cv@@0AAV?$allocator@UStage@Data@CascadeClassifier@cv@@@0@U_Nonscalar_ptr_iterator_tag@0@@Z PROC ; std::_Destroy_range<std::allocator<cv::CascadeClassifier::Data::Stage> >, COMDAT

; 96   : 	for (; _First != _Last; ++_First)
; 97   : 		_Dest_val(_Al, _First);
; 98   : 	}

	ret	0
??$_Destroy_range@V?$allocator@UStage@Data@CascadeClassifier@cv@@@std@@@std@@YAXPAUStage@Data@CascadeClassifier@cv@@0AAV?$allocator@UStage@Data@CascadeClassifier@cv@@@0@U_Nonscalar_ptr_iterator_tag@0@@Z ENDP ; std::_Destroy_range<std::allocator<cv::CascadeClassifier::Data::Stage> >
; Function compile flags: /Ogtp
; File c:\programs & apps\visual studio 10\vc\include\xutility
_TEXT	ENDS
;	COMDAT ??$_Ptr_cat@UStage@Data@CascadeClassifier@cv@@U1234@@std@@YA?AU_Nonscalar_ptr_iterator_tag@0@PAUStage@Data@CascadeClassifier@cv@@0@Z
_TEXT	SEGMENT
__Cat$ = -1						; size = 1
??$_Ptr_cat@UStage@Data@CascadeClassifier@cv@@U1234@@std@@YA?AU_Nonscalar_ptr_iterator_tag@0@PAUStage@Data@CascadeClassifier@cv@@0@Z PROC ; std::_Ptr_cat<cv::CascadeClassifier::Data::Stage,cv::CascadeClassifier::Data::Stage>, COMDAT

; 516  : 	{	// return pointer category from pointers

	push	ebp
	mov	ebp, esp
	push	ecx

; 517  : 	typename _Ptr_cat_helper<_Elem1, _Elem2>::_Type _Cat;
; 518  : 	return (_Cat);

	mov	al, BYTE PTR __Cat$[ebp]

; 519  : 	}

	mov	esp, ebp
	pop	ebp
	ret	0
??$_Ptr_cat@UStage@Data@CascadeClassifier@cv@@U1234@@std@@YA?AU_Nonscalar_ptr_iterator_tag@0@PAUStage@Data@CascadeClassifier@cv@@0@Z ENDP ; std::_Ptr_cat<cv::CascadeClassifier::Data::Stage,cv::CascadeClassifier::Data::Stage>
; Function compile flags: /Ogtp
; File c:\programs & apps\visual studio 10\vc\include\xmemory
_TEXT	ENDS
;	COMDAT ??$_Destroy_range@V?$allocator@H@std@@@std@@YAXPAH0AAV?$allocator@H@0@U_Scalar_ptr_iterator_tag@0@@Z
_TEXT	SEGMENT
___formal$ = 8						; size = 1
??$_Destroy_range@V?$allocator@H@std@@@std@@YAXPAH0AAV?$allocator@H@0@U_Scalar_ptr_iterator_tag@0@@Z PROC ; std::_Destroy_range<std::allocator<int> >, COMDAT

; 105  : 	}

	ret	0
??$_Destroy_range@V?$allocator@H@std@@@std@@YAXPAH0AAV?$allocator@H@0@U_Scalar_ptr_iterator_tag@0@@Z ENDP ; std::_Destroy_range<std::allocator<int> >
; Function compile flags: /Ogtp
; File c:\programs & apps\visual studio 10\vc\include\xutility
_TEXT	ENDS
;	COMDAT ??$_Ptr_cat@HH@std@@YA?AU_Scalar_ptr_iterator_tag@0@PAH0@Z
_TEXT	SEGMENT
__Cat$ = -1						; size = 1
??$_Ptr_cat@HH@std@@YA?AU_Scalar_ptr_iterator_tag@0@PAH0@Z PROC ; std::_Ptr_cat<int,int>, COMDAT

; 516  : 	{	// return pointer category from pointers

	push	ebp
	mov	ebp, esp
	push	ecx

; 517  : 	typename _Ptr_cat_helper<_Elem1, _Elem2>::_Type _Cat;
; 518  : 	return (_Cat);

	mov	al, BYTE PTR __Cat$[ebp]

; 519  : 	}

	mov	esp, ebp
	pop	ebp
	ret	0
??$_Ptr_cat@HH@std@@YA?AU_Scalar_ptr_iterator_tag@0@PAH0@Z ENDP ; std::_Ptr_cat<int,int>
; Function compile flags: /Ogtp
; File c:\programs & apps\opencv\opencv\build\include\opencv2\core\operations.hpp
_TEXT	ENDS
;	COMDAT ?release@?$Ptr@VMaskGenerator@CascadeClassifier@cv@@@cv@@QAEXXZ
_TEXT	SEGMENT
?release@?$Ptr@VMaskGenerator@CascadeClassifier@cv@@@cv@@QAEXXZ PROC ; cv::Ptr<cv::CascadeClassifier::MaskGenerator>::release, COMDAT
; _this$ = esi

; 2603 :     if( refcount && CV_XADD(refcount, -1) == 1 )

	mov	eax, DWORD PTR [esi+4]
	test	eax, eax
	je	SHORT $LN10@release
	push	-1
	push	eax
	call	DWORD PTR __imp_?_interlockedExchangeAdd@cv@@YAHPAHH@Z
	add	esp, 8
	cmp	eax, 1
	jne	SHORT $LN10@release

; 2604 :     {
; 2605 :         delete_obj();

	mov	ecx, DWORD PTR [esi]
	test	ecx, ecx
	je	SHORT $LN7@release
	mov	eax, DWORD PTR [ecx]
	mov	edx, DWORD PTR [eax]
	push	1
	call	edx
$LN7@release:

; 2606 :         fastFree(refcount);

	mov	eax, DWORD PTR [esi+4]
	push	eax
	call	DWORD PTR __imp_?fastFree@cv@@YAXPAX@Z
	add	esp, 4
$LN10@release:

; 2607 :     }
; 2608 :     refcount = 0;

	mov	DWORD PTR [esi+4], 0

; 2609 :     obj = 0;

	mov	DWORD PTR [esi], 0

; 2610 : }

	ret	0
?release@?$Ptr@VMaskGenerator@CascadeClassifier@cv@@@cv@@QAEXXZ ENDP ; cv::Ptr<cv::CascadeClassifier::MaskGenerator>::release
; Function compile flags: /Ogtp
_TEXT	ENDS
;	COMDAT ?addref@?$Ptr@VMaskGenerator@CascadeClassifier@cv@@@cv@@QAEXXZ
_TEXT	SEGMENT
?addref@?$Ptr@VMaskGenerator@CascadeClassifier@cv@@@cv@@QAEXXZ PROC ; cv::Ptr<cv::CascadeClassifier::MaskGenerator>::addref, COMDAT
; _this$ = eax

; 2599 : { if( refcount ) CV_XADD(refcount, 1); }

	mov	eax, DWORD PTR [eax+4]
	test	eax, eax
	je	SHORT $LN1@addref
	push	1
	push	eax
	call	DWORD PTR __imp_?_interlockedExchangeAdd@cv@@YAHPAHH@Z
	add	esp, 8
$LN1@addref:
	ret	0
?addref@?$Ptr@VMaskGenerator@CascadeClassifier@cv@@@cv@@QAEXXZ ENDP ; cv::Ptr<cv::CascadeClassifier::MaskGenerator>::addref
; Function compile flags: /Ogtp
_TEXT	ENDS
;	COMDAT ?release@?$Ptr@VFeatureEvaluator@cv@@@cv@@QAEXXZ
_TEXT	SEGMENT
?release@?$Ptr@VFeatureEvaluator@cv@@@cv@@QAEXXZ PROC	; cv::Ptr<cv::FeatureEvaluator>::release, COMDAT
; _this$ = esi

; 2603 :     if( refcount && CV_XADD(refcount, -1) == 1 )

	mov	eax, DWORD PTR [esi+4]
	test	eax, eax
	je	SHORT $LN10@release@2
	push	-1
	push	eax
	call	DWORD PTR __imp_?_interlockedExchangeAdd@cv@@YAHPAHH@Z
	add	esp, 8
	cmp	eax, 1
	jne	SHORT $LN10@release@2

; 2604 :     {
; 2605 :         delete_obj();

	mov	ecx, DWORD PTR [esi]
	test	ecx, ecx
	je	SHORT $LN7@release@2
	mov	eax, DWORD PTR [ecx]
	mov	edx, DWORD PTR [eax]
	push	1
	call	edx
$LN7@release@2:

; 2606 :         fastFree(refcount);

	mov	eax, DWORD PTR [esi+4]
	push	eax
	call	DWORD PTR __imp_?fastFree@cv@@YAXPAX@Z
	add	esp, 4
$LN10@release@2:

; 2607 :     }
; 2608 :     refcount = 0;

	mov	DWORD PTR [esi+4], 0

; 2609 :     obj = 0;

	mov	DWORD PTR [esi], 0

; 2610 : }

	ret	0
?release@?$Ptr@VFeatureEvaluator@cv@@@cv@@QAEXXZ ENDP	; cv::Ptr<cv::FeatureEvaluator>::release
; Function compile flags: /Ogtp
_TEXT	ENDS
;	COMDAT ?addref@?$Ptr@VFeatureEvaluator@cv@@@cv@@QAEXXZ
_TEXT	SEGMENT
?addref@?$Ptr@VFeatureEvaluator@cv@@@cv@@QAEXXZ PROC	; cv::Ptr<cv::FeatureEvaluator>::addref, COMDAT
; _this$ = eax

; 2599 : { if( refcount ) CV_XADD(refcount, 1); }

	mov	eax, DWORD PTR [eax+4]
	test	eax, eax
	je	SHORT $LN1@addref@2
	push	1
	push	eax
	call	DWORD PTR __imp_?_interlockedExchangeAdd@cv@@YAHPAHH@Z
	add	esp, 8
$LN1@addref@2:
	ret	0
?addref@?$Ptr@VFeatureEvaluator@cv@@@cv@@QAEXXZ ENDP	; cv::Ptr<cv::FeatureEvaluator>::addref
; Function compile flags: /Ogtp
_TEXT	ENDS
;	COMDAT ?release@?$Ptr@UCvHaarClassifierCascade@@@cv@@QAEXXZ
_TEXT	SEGMENT
?release@?$Ptr@UCvHaarClassifierCascade@@@cv@@QAEXXZ PROC ; cv::Ptr<CvHaarClassifierCascade>::release, COMDAT
; _this$ = esi

; 2603 :     if( refcount && CV_XADD(refcount, -1) == 1 )

	mov	eax, DWORD PTR [esi+4]
	test	eax, eax
	je	SHORT $LN5@release@3
	push	-1
	push	eax
	call	DWORD PTR __imp_?_interlockedExchangeAdd@cv@@YAHPAHH@Z
	add	esp, 8
	cmp	eax, 1
	jne	SHORT $LN5@release@3

; 2604 :     {
; 2605 :         delete_obj();

	mov	ecx, esi
	call	DWORD PTR __imp_?delete_obj@?$Ptr@UCvHaarClassifierCascade@@@cv@@QAEXXZ

; 2606 :         fastFree(refcount);

	mov	eax, DWORD PTR [esi+4]
	push	eax
	call	DWORD PTR __imp_?fastFree@cv@@YAXPAX@Z
	add	esp, 4
$LN5@release@3:

; 2607 :     }
; 2608 :     refcount = 0;

	mov	DWORD PTR [esi+4], 0

; 2609 :     obj = 0;

	mov	DWORD PTR [esi], 0

; 2610 : }

	ret	0
?release@?$Ptr@UCvHaarClassifierCascade@@@cv@@QAEXXZ ENDP ; cv::Ptr<CvHaarClassifierCascade>::release
; Function compile flags: /Ogtp
_TEXT	ENDS
;	COMDAT ?addref@?$Ptr@UCvHaarClassifierCascade@@@cv@@QAEXXZ
_TEXT	SEGMENT
?addref@?$Ptr@UCvHaarClassifierCascade@@@cv@@QAEXXZ PROC ; cv::Ptr<CvHaarClassifierCascade>::addref, COMDAT
; _this$ = eax

; 2599 : { if( refcount ) CV_XADD(refcount, 1); }

	mov	eax, DWORD PTR [eax+4]
	test	eax, eax
	je	SHORT $LN1@addref@3
	push	1
	push	eax
	call	DWORD PTR __imp_?_interlockedExchangeAdd@cv@@YAHPAHH@Z
	add	esp, 8
$LN1@addref@3:
	ret	0
?addref@?$Ptr@UCvHaarClassifierCascade@@@cv@@QAEXXZ ENDP ; cv::Ptr<CvHaarClassifierCascade>::addref
; Function compile flags: /Ogtp
_TEXT	ENDS
;	COMDAT ??0?$Vec@N$03@cv@@QAE@XZ
_TEXT	SEGMENT
??0?$Vec@N$03@cv@@QAE@XZ PROC				; cv::Vec<double,4>::Vec<double,4>, COMDAT
; _this$ = eax

; 1138 : {}

	fldz
	fst	QWORD PTR [eax]
	fst	QWORD PTR [eax+8]
	fst	QWORD PTR [eax+16]
	fstp	QWORD PTR [eax+24]
	ret	0
??0?$Vec@N$03@cv@@QAE@XZ ENDP				; cv::Vec<double,4>::Vec<double,4>
; Function compile flags: /Ogtp
; File c:\programs & apps\visual studio 10\vc\include\vector
_TEXT	ENDS
;	COMDAT ??A?$vector@V?$Point_@H@cv@@V?$allocator@V?$Point_@H@cv@@@std@@@std@@QBEABV?$Point_@H@cv@@I@Z
_TEXT	SEGMENT
??A?$vector@V?$Point_@H@cv@@V?$allocator@V?$Point_@H@cv@@@std@@@std@@QBEABV?$Point_@H@cv@@I@Z PROC ; std::vector<cv::Point_<int>,std::allocator<cv::Point_<int> > >::operator[], COMDAT
; _this$ = eax

; 913  :  #if _ITERATOR_DEBUG_LEVEL == 2
; 914  : 		if (size() <= _Pos)
; 915  : 			{	// report error
; 916  : 			_DEBUG_ERROR("vector subscript out of range");
; 917  : 			_SCL_SECURE_OUT_OF_RANGE;
; 918  : 			}
; 919  : 
; 920  :  #elif _ITERATOR_DEBUG_LEVEL == 1
; 921  : 		_SCL_SECURE_VALIDATE_RANGE(_Pos < size());
; 922  :  #endif /* _ITERATOR_DEBUG_LEVEL */
; 923  : 
; 924  : 		return (*(this->_Myfirst + _Pos));

	mov	eax, DWORD PTR [eax]

; 925  : 		}

	ret	0
??A?$vector@V?$Point_@H@cv@@V?$allocator@V?$Point_@H@cv@@@std@@@std@@QBEABV?$Point_@H@cv@@I@Z ENDP ; std::vector<cv::Point_<int>,std::allocator<cv::Point_<int> > >::operator[]
; Function compile flags: /Ogtp
_TEXT	ENDS
;	COMDAT ?empty@?$vector@V?$Point_@H@cv@@V?$allocator@V?$Point_@H@cv@@@std@@@std@@QBE_NXZ
_TEXT	SEGMENT
?empty@?$vector@V?$Point_@H@cv@@V?$allocator@V?$Point_@H@cv@@@std@@@std@@QBE_NXZ PROC ; std::vector<cv::Point_<int>,std::allocator<cv::Point_<int> > >::empty, COMDAT
; _this$ = eax

; 889  : 		return (this->_Myfirst == this->_Mylast);

	mov	ecx, DWORD PTR [eax]
	xor	edx, edx
	cmp	ecx, DWORD PTR [eax+4]
	sete	al

; 890  : 		}

	ret	0
?empty@?$vector@V?$Point_@H@cv@@V?$allocator@V?$Point_@H@cv@@@std@@@std@@QBE_NXZ ENDP ; std::vector<cv::Point_<int>,std::allocator<cv::Point_<int> > >::empty
; Function compile flags: /Ogtp
_TEXT	ENDS
;	COMDAT ?size@?$vector@V?$Point_@H@cv@@V?$allocator@V?$Point_@H@cv@@@std@@@std@@QBEIXZ
_TEXT	SEGMENT
?size@?$vector@V?$Point_@H@cv@@V?$allocator@V?$Point_@H@cv@@@std@@@std@@QBEIXZ PROC ; std::vector<cv::Point_<int>,std::allocator<cv::Point_<int> > >::size, COMDAT
; _this$ = ecx

; 879  : 		return (this->_Mylast - this->_Myfirst);

	mov	eax, DWORD PTR [ecx+4]
	sub	eax, DWORD PTR [ecx]
	sar	eax, 3

; 880  : 		}

	ret	0
?size@?$vector@V?$Point_@H@cv@@V?$allocator@V?$Point_@H@cv@@@std@@@std@@QBEIXZ ENDP ; std::vector<cv::Point_<int>,std::allocator<cv::Point_<int> > >::size
; Function compile flags: /Ogtp
_TEXT	ENDS
;	COMDAT ??0bad_alloc@std@@QAE@ABV01@@Z
_TEXT	SEGMENT
___that$ = 8						; size = 4
??0bad_alloc@std@@QAE@ABV01@@Z PROC			; std::bad_alloc::bad_alloc, COMDAT
; _this$ = ecx
	push	ebp
	mov	ebp, esp
	mov	eax, DWORD PTR ___that$[ebp]
	push	esi
	push	eax
	mov	esi, ecx
	call	DWORD PTR __imp_??0exception@std@@QAE@ABV01@@Z
	mov	DWORD PTR [esi], OFFSET ??_7bad_alloc@std@@6B@
	mov	eax, esi
	pop	esi
	pop	ebp
	ret	4
??0bad_alloc@std@@QAE@ABV01@@Z ENDP			; std::bad_alloc::bad_alloc
; Function compile flags: /Ogtp
; File c:\programs & apps\visual studio 10\vc\include\xmemory
_TEXT	ENDS
;	COMDAT ??$_Destroy_range@V?$allocator@V?$Vec@H$03@cv@@@std@@@std@@YAXPAV?$Vec@H$03@cv@@0AAV?$allocator@V?$Vec@H$03@cv@@@0@@Z
_TEXT	SEGMENT
??$_Destroy_range@V?$allocator@V?$Vec@H$03@cv@@@std@@@std@@YAXPAV?$Vec@H$03@cv@@0AAV?$allocator@V?$Vec@H$03@cv@@@0@@Z PROC ; std::_Destroy_range<std::allocator<cv::Vec<int,4> > >, COMDAT

; 88   : 	_Destroy_range(_First, _Last, _Al, _Ptr_cat(_First, _Last));
; 89   : 	}

	ret	0
??$_Destroy_range@V?$allocator@V?$Vec@H$03@cv@@@std@@@std@@YAXPAV?$Vec@H$03@cv@@0AAV?$allocator@V?$Vec@H$03@cv@@@0@@Z ENDP ; std::_Destroy_range<std::allocator<cv::Vec<int,4> > >
; Function compile flags: /Ogtp
_TEXT	ENDS
;	COMDAT ??$_Destroy_range@V?$allocator@V?$vector@V?$Point_@H@cv@@V?$allocator@V?$Point_@H@cv@@@std@@@std@@@std@@@std@@YAXPAV?$vector@V?$Point_@H@cv@@V?$allocator@V?$Point_@H@cv@@@std@@@0@0AAV?$allocator@V?$vector@V?$Point_@H@cv@@V?$allocator@V?$Point_@H@cv@@@std@@@std@@@0@@Z
_TEXT	SEGMENT
??$_Destroy_range@V?$allocator@V?$vector@V?$Point_@H@cv@@V?$allocator@V?$Point_@H@cv@@@std@@@std@@@std@@@std@@YAXPAV?$vector@V?$Point_@H@cv@@V?$allocator@V?$Point_@H@cv@@@std@@@0@0AAV?$allocator@V?$vector@V?$Point_@H@cv@@V?$allocator@V?$Point_@H@cv@@@std@@@std@@@0@@Z PROC ; std::_Destroy_range<std::allocator<std::vector<cv::Point_<int>,std::allocator<cv::Point_<int> > > > >, COMDAT
; __First$ = eax
; __Last$ = ebx

; 87   : 	{	// destroy [_First, _Last)

	push	esi
	mov	esi, eax

; 88   : 	_Destroy_range(_First, _Last, _Al, _Ptr_cat(_First, _Last));

	cmp	esi, ebx
	je	SHORT $LN5@Destroy_ra@2
	push	edi
	xor	edi, edi
	npad	6
$LL7@Destroy_ra@2:
	mov	eax, DWORD PTR [esi]
	cmp	eax, edi
	je	SHORT $LN26@Destroy_ra@2
	push	eax
	call	DWORD PTR __imp_??3@YAXPAX@Z
	add	esp, 4
$LN26@Destroy_ra@2:
	mov	DWORD PTR [esi], edi
	mov	DWORD PTR [esi+4], edi
	mov	DWORD PTR [esi+8], edi
	add	esi, 16					; 00000010H
	cmp	esi, ebx
	jne	SHORT $LL7@Destroy_ra@2
	pop	edi
$LN5@Destroy_ra@2:
	pop	esi

; 89   : 	}

	ret	0
??$_Destroy_range@V?$allocator@V?$vector@V?$Point_@H@cv@@V?$allocator@V?$Point_@H@cv@@@std@@@std@@@std@@@std@@YAXPAV?$vector@V?$Point_@H@cv@@V?$allocator@V?$Point_@H@cv@@@std@@@0@0AAV?$allocator@V?$vector@V?$Point_@H@cv@@V?$allocator@V?$Point_@H@cv@@@std@@@std@@@0@@Z ENDP ; std::_Destroy_range<std::allocator<std::vector<cv::Point_<int>,std::allocator<cv::Point_<int> > > > >
; Function compile flags: /Ogtp
_TEXT	ENDS
;	COMDAT ??$_Destroy_range@V?$allocator@V?$Rect_@H@cv@@@std@@@std@@YAXPAV?$Rect_@H@cv@@0AAV?$allocator@V?$Rect_@H@cv@@@0@@Z
_TEXT	SEGMENT
??$_Destroy_range@V?$allocator@V?$Rect_@H@cv@@@std@@@std@@YAXPAV?$Rect_@H@cv@@0AAV?$allocator@V?$Rect_@H@cv@@@0@@Z PROC ; std::_Destroy_range<std::allocator<cv::Rect_<int> > >, COMDAT

; 88   : 	_Destroy_range(_First, _Last, _Al, _Ptr_cat(_First, _Last));
; 89   : 	}

	ret	0
??$_Destroy_range@V?$allocator@V?$Rect_@H@cv@@@std@@@std@@YAXPAV?$Rect_@H@cv@@0AAV?$allocator@V?$Rect_@H@cv@@@0@@Z ENDP ; std::_Destroy_range<std::allocator<cv::Rect_<int> > >
; Function compile flags: /Ogtp
_TEXT	ENDS
;	COMDAT ??$_Destroy_range@V?$allocator@M@std@@@std@@YAXPAM0AAV?$allocator@M@0@@Z
_TEXT	SEGMENT
??$_Destroy_range@V?$allocator@M@std@@@std@@YAXPAM0AAV?$allocator@M@0@@Z PROC ; std::_Destroy_range<std::allocator<float> >, COMDAT

; 88   : 	_Destroy_range(_First, _Last, _Al, _Ptr_cat(_First, _Last));
; 89   : 	}

	ret	0
??$_Destroy_range@V?$allocator@M@std@@@std@@YAXPAM0AAV?$allocator@M@0@@Z ENDP ; std::_Destroy_range<std::allocator<float> >
; Function compile flags: /Ogtp
_TEXT	ENDS
;	COMDAT ??$_Destroy_range@V?$allocator@UDTreeNode@Data@CascadeClassifier@cv@@@std@@@std@@YAXPAUDTreeNode@Data@CascadeClassifier@cv@@0AAV?$allocator@UDTreeNode@Data@CascadeClassifier@cv@@@0@@Z
_TEXT	SEGMENT
??$_Destroy_range@V?$allocator@UDTreeNode@Data@CascadeClassifier@cv@@@std@@@std@@YAXPAUDTreeNode@Data@CascadeClassifier@cv@@0AAV?$allocator@UDTreeNode@Data@CascadeClassifier@cv@@@0@@Z PROC ; std::_Destroy_range<std::allocator<cv::CascadeClassifier::Data::DTreeNode> >, COMDAT

; 88   : 	_Destroy_range(_First, _Last, _Al, _Ptr_cat(_First, _Last));
; 89   : 	}

	ret	0
??$_Destroy_range@V?$allocator@UDTreeNode@Data@CascadeClassifier@cv@@@std@@@std@@YAXPAUDTreeNode@Data@CascadeClassifier@cv@@0AAV?$allocator@UDTreeNode@Data@CascadeClassifier@cv@@@0@@Z ENDP ; std::_Destroy_range<std::allocator<cv::CascadeClassifier::Data::DTreeNode> >
; Function compile flags: /Ogtp
_TEXT	ENDS
;	COMDAT ??$_Destroy_range@V?$allocator@UDTree@Data@CascadeClassifier@cv@@@std@@@std@@YAXPAUDTree@Data@CascadeClassifier@cv@@0AAV?$allocator@UDTree@Data@CascadeClassifier@cv@@@0@@Z
_TEXT	SEGMENT
??$_Destroy_range@V?$allocator@UDTree@Data@CascadeClassifier@cv@@@std@@@std@@YAXPAUDTree@Data@CascadeClassifier@cv@@0AAV?$allocator@UDTree@Data@CascadeClassifier@cv@@@0@@Z PROC ; std::_Destroy_range<std::allocator<cv::CascadeClassifier::Data::DTree> >, COMDAT

; 88   : 	_Destroy_range(_First, _Last, _Al, _Ptr_cat(_First, _Last));
; 89   : 	}

	ret	0
??$_Destroy_range@V?$allocator@UDTree@Data@CascadeClassifier@cv@@@std@@@std@@YAXPAUDTree@Data@CascadeClassifier@cv@@0AAV?$allocator@UDTree@Data@CascadeClassifier@cv@@@0@@Z ENDP ; std::_Destroy_range<std::allocator<cv::CascadeClassifier::Data::DTree> >
; Function compile flags: /Ogtp
_TEXT	ENDS
;	COMDAT ??$_Destroy_range@V?$allocator@UStage@Data@CascadeClassifier@cv@@@std@@@std@@YAXPAUStage@Data@CascadeClassifier@cv@@0AAV?$allocator@UStage@Data@CascadeClassifier@cv@@@0@@Z
_TEXT	SEGMENT
??$_Destroy_range@V?$allocator@UStage@Data@CascadeClassifier@cv@@@std@@@std@@YAXPAUStage@Data@CascadeClassifier@cv@@0AAV?$allocator@UStage@Data@CascadeClassifier@cv@@@0@@Z PROC ; std::_Destroy_range<std::allocator<cv::CascadeClassifier::Data::Stage> >, COMDAT

; 88   : 	_Destroy_range(_First, _Last, _Al, _Ptr_cat(_First, _Last));
; 89   : 	}

	ret	0
??$_Destroy_range@V?$allocator@UStage@Data@CascadeClassifier@cv@@@std@@@std@@YAXPAUStage@Data@CascadeClassifier@cv@@0AAV?$allocator@UStage@Data@CascadeClassifier@cv@@@0@@Z ENDP ; std::_Destroy_range<std::allocator<cv::CascadeClassifier::Data::Stage> >
; Function compile flags: /Ogtp
_TEXT	ENDS
;	COMDAT ??$_Destroy_range@V?$allocator@H@std@@@std@@YAXPAH0AAV?$allocator@H@0@@Z
_TEXT	SEGMENT
??$_Destroy_range@V?$allocator@H@std@@@std@@YAXPAH0AAV?$allocator@H@0@@Z PROC ; std::_Destroy_range<std::allocator<int> >, COMDAT

; 88   : 	_Destroy_range(_First, _Last, _Al, _Ptr_cat(_First, _Last));
; 89   : 	}

	ret	0
??$_Destroy_range@V?$allocator@H@std@@@std@@YAXPAH0AAV?$allocator@H@0@@Z ENDP ; std::_Destroy_range<std::allocator<int> >
; Function compile flags: /Ogtp
; File c:\programs & apps\opencv\opencv\build\include\opencv2\core\operations.hpp
_TEXT	ENDS
;	COMDAT ??A?$Vec@H$03@cv@@QAEAAHH@Z
_TEXT	SEGMENT
??A?$Vec@H$03@cv@@QAEAAHH@Z PROC			; cv::Vec<int,4>::operator[], COMDAT
; _this$ = eax

; 1285 :     CV_DbgAssert( (unsigned)i < (unsigned)cn );
; 1286 :     return this->val[i];
; 1287 : }

	ret	0
??A?$Vec@H$03@cv@@QAEAAHH@Z ENDP			; cv::Vec<int,4>::operator[]
; Function compile flags: /Ogtp
_TEXT	ENDS
;	COMDAT ??1?$Ptr@VMaskGenerator@CascadeClassifier@cv@@@cv@@QAE@XZ
_TEXT	SEGMENT
??1?$Ptr@VMaskGenerator@CascadeClassifier@cv@@@cv@@QAE@XZ PROC ; cv::Ptr<cv::CascadeClassifier::MaskGenerator>::~Ptr<cv::CascadeClassifier::MaskGenerator>, COMDAT
; _this$ = esi

; 2617 : template<typename _Tp> inline Ptr<_Tp>::~Ptr() { release(); }

	mov	eax, DWORD PTR [esi+4]
	test	eax, eax
	je	SHORT $LN12@Ptr
	push	-1
	push	eax
	call	DWORD PTR __imp_?_interlockedExchangeAdd@cv@@YAHPAHH@Z
	add	esp, 8
	cmp	eax, 1
	jne	SHORT $LN12@Ptr
	mov	ecx, DWORD PTR [esi]
	test	ecx, ecx
	je	SHORT $LN9@Ptr
	mov	eax, DWORD PTR [ecx]
	mov	edx, DWORD PTR [eax]
	push	1
	call	edx
$LN9@Ptr:
	mov	eax, DWORD PTR [esi+4]
	push	eax
	call	DWORD PTR __imp_?fastFree@cv@@YAXPAX@Z
	add	esp, 4
$LN12@Ptr:
	mov	DWORD PTR [esi+4], 0
	mov	DWORD PTR [esi], 0
	ret	0
??1?$Ptr@VMaskGenerator@CascadeClassifier@cv@@@cv@@QAE@XZ ENDP ; cv::Ptr<cv::CascadeClassifier::MaskGenerator>::~Ptr<cv::CascadeClassifier::MaskGenerator>
; Function compile flags: /Ogtp
_TEXT	ENDS
;	COMDAT ??0?$Ptr@VMaskGenerator@CascadeClassifier@cv@@@cv@@QAE@ABV01@@Z
_TEXT	SEGMENT
??0?$Ptr@VMaskGenerator@CascadeClassifier@cv@@@cv@@QAE@ABV01@@Z PROC ; cv::Ptr<cv::CascadeClassifier::MaskGenerator>::Ptr<cv::CascadeClassifier::MaskGenerator>, COMDAT
; _this$ = esi
; __ptr$ = eax

; 2621 :     obj = _ptr.obj;

	mov	ecx, DWORD PTR [eax]
	mov	DWORD PTR [esi], ecx

; 2622 :     refcount = _ptr.refcount;

	mov	eax, DWORD PTR [eax+4]
	mov	DWORD PTR [esi+4], eax

; 2623 :     addref();

	test	eax, eax
	je	SHORT $LN6@Ptr@2
	push	1
	push	eax
	call	DWORD PTR __imp_?_interlockedExchangeAdd@cv@@YAHPAHH@Z
	add	esp, 8
$LN6@Ptr@2:

; 2624 : }

	mov	eax, esi
	ret	0
??0?$Ptr@VMaskGenerator@CascadeClassifier@cv@@@cv@@QAE@ABV01@@Z ENDP ; cv::Ptr<cv::CascadeClassifier::MaskGenerator>::Ptr<cv::CascadeClassifier::MaskGenerator>
; Function compile flags: /Ogtp
_TEXT	ENDS
;	COMDAT ??1?$Ptr@VFeatureEvaluator@cv@@@cv@@QAE@XZ
_TEXT	SEGMENT
??1?$Ptr@VFeatureEvaluator@cv@@@cv@@QAE@XZ PROC		; cv::Ptr<cv::FeatureEvaluator>::~Ptr<cv::FeatureEvaluator>, COMDAT
; _this$ = esi

; 2617 : template<typename _Tp> inline Ptr<_Tp>::~Ptr() { release(); }

	mov	eax, DWORD PTR [esi+4]
	test	eax, eax
	je	SHORT $LN12@Ptr@3
	push	-1
	push	eax
	call	DWORD PTR __imp_?_interlockedExchangeAdd@cv@@YAHPAHH@Z
	add	esp, 8
	cmp	eax, 1
	jne	SHORT $LN12@Ptr@3
	mov	ecx, DWORD PTR [esi]
	test	ecx, ecx
	je	SHORT $LN9@Ptr@3
	mov	eax, DWORD PTR [ecx]
	mov	edx, DWORD PTR [eax]
	push	1
	call	edx
$LN9@Ptr@3:
	mov	eax, DWORD PTR [esi+4]
	push	eax
	call	DWORD PTR __imp_?fastFree@cv@@YAXPAX@Z
	add	esp, 4
$LN12@Ptr@3:
	mov	DWORD PTR [esi+4], 0
	mov	DWORD PTR [esi], 0
	ret	0
??1?$Ptr@VFeatureEvaluator@cv@@@cv@@QAE@XZ ENDP		; cv::Ptr<cv::FeatureEvaluator>::~Ptr<cv::FeatureEvaluator>
; Function compile flags: /Ogtp
_TEXT	ENDS
;	COMDAT ??0?$Ptr@VFeatureEvaluator@cv@@@cv@@QAE@ABV01@@Z
_TEXT	SEGMENT
??0?$Ptr@VFeatureEvaluator@cv@@@cv@@QAE@ABV01@@Z PROC	; cv::Ptr<cv::FeatureEvaluator>::Ptr<cv::FeatureEvaluator>, COMDAT
; _this$ = esi
; __ptr$ = eax

; 2621 :     obj = _ptr.obj;

	mov	ecx, DWORD PTR [eax]
	mov	DWORD PTR [esi], ecx

; 2622 :     refcount = _ptr.refcount;

	mov	eax, DWORD PTR [eax+4]
	mov	DWORD PTR [esi+4], eax

; 2623 :     addref();

	test	eax, eax
	je	SHORT $LN6@Ptr@4
	push	1
	push	eax
	call	DWORD PTR __imp_?_interlockedExchangeAdd@cv@@YAHPAHH@Z
	add	esp, 8
$LN6@Ptr@4:

; 2624 : }

	mov	eax, esi
	ret	0
??0?$Ptr@VFeatureEvaluator@cv@@@cv@@QAE@ABV01@@Z ENDP	; cv::Ptr<cv::FeatureEvaluator>::Ptr<cv::FeatureEvaluator>
; Function compile flags: /Ogtp
_TEXT	ENDS
;	COMDAT ??1?$Ptr@UCvHaarClassifierCascade@@@cv@@QAE@XZ
_TEXT	SEGMENT
??1?$Ptr@UCvHaarClassifierCascade@@@cv@@QAE@XZ PROC	; cv::Ptr<CvHaarClassifierCascade>::~Ptr<CvHaarClassifierCascade>, COMDAT
; _this$ = esi

; 2617 : template<typename _Tp> inline Ptr<_Tp>::~Ptr() { release(); }

	mov	eax, DWORD PTR [esi+4]
	test	eax, eax
	je	SHORT $LN7@Ptr@5
	push	-1
	push	eax
	call	DWORD PTR __imp_?_interlockedExchangeAdd@cv@@YAHPAHH@Z
	add	esp, 8
	cmp	eax, 1
	jne	SHORT $LN7@Ptr@5
	mov	ecx, esi
	call	DWORD PTR __imp_?delete_obj@?$Ptr@UCvHaarClassifierCascade@@@cv@@QAEXXZ
	mov	eax, DWORD PTR [esi+4]
	push	eax
	call	DWORD PTR __imp_?fastFree@cv@@YAXPAX@Z
	add	esp, 4
$LN7@Ptr@5:
	mov	DWORD PTR [esi+4], 0
	mov	DWORD PTR [esi], 0
	ret	0
??1?$Ptr@UCvHaarClassifierCascade@@@cv@@QAE@XZ ENDP	; cv::Ptr<CvHaarClassifierCascade>::~Ptr<CvHaarClassifierCascade>
; Function compile flags: /Ogtp
_TEXT	ENDS
;	COMDAT ??0?$Ptr@UCvHaarClassifierCascade@@@cv@@QAE@ABV01@@Z
_TEXT	SEGMENT
??0?$Ptr@UCvHaarClassifierCascade@@@cv@@QAE@ABV01@@Z PROC ; cv::Ptr<CvHaarClassifierCascade>::Ptr<CvHaarClassifierCascade>, COMDAT
; _this$ = esi
; __ptr$ = eax

; 2621 :     obj = _ptr.obj;

	mov	ecx, DWORD PTR [eax]
	mov	DWORD PTR [esi], ecx

; 2622 :     refcount = _ptr.refcount;

	mov	eax, DWORD PTR [eax+4]
	mov	DWORD PTR [esi+4], eax

; 2623 :     addref();

	test	eax, eax
	je	SHORT $LN6@Ptr@6
	push	1
	push	eax
	call	DWORD PTR __imp_?_interlockedExchangeAdd@cv@@YAHPAHH@Z
	add	esp, 8
$LN6@Ptr@6:

; 2624 : }

	mov	eax, esi
	ret	0
??0?$Ptr@UCvHaarClassifierCascade@@@cv@@QAE@ABV01@@Z ENDP ; cv::Ptr<CvHaarClassifierCascade>::Ptr<CvHaarClassifierCascade>
; Function compile flags: /Ogtp
_TEXT	ENDS
;	COMDAT ??0?$Point_@H@cv@@QAE@XZ
_TEXT	SEGMENT
??0?$Point_@H@cv@@QAE@XZ PROC				; cv::Point_<int>::Point_<int>, COMDAT
; _this$ = eax

; 1620 : template<typename _Tp> inline Point_<_Tp>::Point_() : x(0), y(0) {}

	mov	DWORD PTR [eax], 0
	mov	DWORD PTR [eax+4], 0
	ret	0
??0?$Point_@H@cv@@QAE@XZ ENDP				; cv::Point_<int>::Point_<int>
; Function compile flags: /Ogtp
_TEXT	ENDS
;	COMDAT ??0?$Point_@H@cv@@QAE@HH@Z
_TEXT	SEGMENT
??0?$Point_@H@cv@@QAE@HH@Z PROC				; cv::Point_<int>::Point_<int>, COMDAT
; _this$ = eax
; __x$ = ecx
; __y$ = edx

; 1621 : template<typename _Tp> inline Point_<_Tp>::Point_(_Tp _x, _Tp _y) : x(_x), y(_y) {}

	mov	DWORD PTR [eax], ecx
	mov	DWORD PTR [eax+4], edx
	ret	0
??0?$Point_@H@cv@@QAE@HH@Z ENDP				; cv::Point_<int>::Point_<int>
; Function compile flags: /Ogtp
_TEXT	ENDS
;	COMDAT ??0?$Point_@H@cv@@QAE@ABV01@@Z
_TEXT	SEGMENT
??0?$Point_@H@cv@@QAE@ABV01@@Z PROC			; cv::Point_<int>::Point_<int>, COMDAT
; _this$ = eax
; _pt$ = ecx

; 1622 : template<typename _Tp> inline Point_<_Tp>::Point_(const Point_& pt) : x(pt.x), y(pt.y) {}

	mov	edx, DWORD PTR [ecx]
	mov	DWORD PTR [eax], edx
	mov	ecx, DWORD PTR [ecx+4]
	mov	DWORD PTR [eax+4], ecx
	ret	0
??0?$Point_@H@cv@@QAE@ABV01@@Z ENDP			; cv::Point_<int>::Point_<int>
; Function compile flags: /Ogtp
_TEXT	ENDS
;	COMDAT ??0?$Scalar_@N@cv@@QAE@NNNN@Z
_TEXT	SEGMENT
_v0$ = 8						; size = 8
_v1$ = 16						; size = 8
_v2$ = 24						; size = 8
_v3$ = 32						; size = 8
??0?$Scalar_@N@cv@@QAE@NNNN@Z PROC			; cv::Scalar_<double>::Scalar_<double>, COMDAT
; _this$ = eax

; 2019 : { this->val[0] = v0; this->val[1] = v1; this->val[2] = v2; this->val[3] = v3; }

	push	ebp
	mov	ebp, esp
	fldz
	fst	QWORD PTR [eax]
	fst	QWORD PTR [eax+8]
	fst	QWORD PTR [eax+16]
	fstp	QWORD PTR [eax+24]
	fld	QWORD PTR _v0$[ebp]
	fstp	QWORD PTR [eax]
	fld	QWORD PTR _v1$[ebp]
	fstp	QWORD PTR [eax+8]
	fld	QWORD PTR _v2$[ebp]
	fstp	QWORD PTR [eax+16]
	fld	QWORD PTR _v3$[ebp]
	fstp	QWORD PTR [eax+24]
	pop	ebp
	ret	32					; 00000020H
??0?$Scalar_@N@cv@@QAE@NNNN@Z ENDP			; cv::Scalar_<double>::Scalar_<double>
; Function compile flags: /Ogtp
_TEXT	ENDS
;	COMDAT ??0?$Size_@H@cv@@QAE@XZ
_TEXT	SEGMENT
??0?$Size_@H@cv@@QAE@XZ PROC				; cv::Size_<int>::Size_<int>, COMDAT
; _this$ = eax

; 1858 :     : width(0), height(0) {}

	mov	DWORD PTR [eax], 0
	mov	DWORD PTR [eax+4], 0
	ret	0
??0?$Size_@H@cv@@QAE@XZ ENDP				; cv::Size_<int>::Size_<int>
; Function compile flags: /Ogtp
_TEXT	ENDS
;	COMDAT ??0?$Size_@H@cv@@QAE@HH@Z
_TEXT	SEGMENT
??0?$Size_@H@cv@@QAE@HH@Z PROC				; cv::Size_<int>::Size_<int>, COMDAT
; _this$ = eax
; __width$ = ecx
; __height$ = edx

; 1860 :     : width(_width), height(_height) {}

	mov	DWORD PTR [eax], ecx
	mov	DWORD PTR [eax+4], edx
	ret	0
??0?$Size_@H@cv@@QAE@HH@Z ENDP				; cv::Size_<int>::Size_<int>
; Function compile flags: /Ogtp
_TEXT	ENDS
;	COMDAT ??0?$Size_@H@cv@@QAE@ABV01@@Z
_TEXT	SEGMENT
??0?$Size_@H@cv@@QAE@ABV01@@Z PROC			; cv::Size_<int>::Size_<int>, COMDAT
; _this$ = eax
; _sz$ = ecx

; 1862 :     : width(sz.width), height(sz.height) {}

	mov	edx, DWORD PTR [ecx]
	mov	DWORD PTR [eax], edx
	mov	ecx, DWORD PTR [ecx+4]
	mov	DWORD PTR [eax+4], ecx
	ret	0
??0?$Size_@H@cv@@QAE@ABV01@@Z ENDP			; cv::Size_<int>::Size_<int>
; Function compile flags: /Ogtp
; File c:\programs & apps\visual studio 10\vc\include\xmemory
_TEXT	ENDS
;	COMDAT ?max_size@?$allocator@D@std@@QBEIXZ
_TEXT	SEGMENT
?max_size@?$allocator@D@std@@QBEIXZ PROC		; std::allocator<char>::max_size, COMDAT

; 218  : 		_SIZT _Count = (_SIZT)(-1) / sizeof (_Ty);
; 219  : 		return (0 < _Count ? _Count : 1);

	or	eax, -1

; 220  : 		}

	ret	0
?max_size@?$allocator@D@std@@QBEIXZ ENDP		; std::allocator<char>::max_size
; Function compile flags: /Ogtp
_TEXT	ENDS
;	COMDAT ?max_size@?$allocator@M@std@@QBEIXZ
_TEXT	SEGMENT
?max_size@?$allocator@M@std@@QBEIXZ PROC		; std::allocator<float>::max_size, COMDAT

; 218  : 		_SIZT _Count = (_SIZT)(-1) / sizeof (_Ty);
; 219  : 		return (0 < _Count ? _Count : 1);

	mov	eax, 1073741823				; 3fffffffH

; 220  : 		}

	ret	0
?max_size@?$allocator@M@std@@QBEIXZ ENDP		; std::allocator<float>::max_size
; Function compile flags: /Ogtp
_TEXT	ENDS
;	COMDAT ?max_size@?$allocator@UDTreeNode@Data@CascadeClassifier@cv@@@std@@QBEIXZ
_TEXT	SEGMENT
?max_size@?$allocator@UDTreeNode@Data@CascadeClassifier@cv@@@std@@QBEIXZ PROC ; std::allocator<cv::CascadeClassifier::Data::DTreeNode>::max_size, COMDAT

; 218  : 		_SIZT _Count = (_SIZT)(-1) / sizeof (_Ty);
; 219  : 		return (0 < _Count ? _Count : 1);

	mov	eax, 268435455				; 0fffffffH

; 220  : 		}

	ret	0
?max_size@?$allocator@UDTreeNode@Data@CascadeClassifier@cv@@@std@@QBEIXZ ENDP ; std::allocator<cv::CascadeClassifier::Data::DTreeNode>::max_size
; Function compile flags: /Ogtp
_TEXT	ENDS
;	COMDAT ?max_size@?$allocator@UDTree@Data@CascadeClassifier@cv@@@std@@QBEIXZ
_TEXT	SEGMENT
?max_size@?$allocator@UDTree@Data@CascadeClassifier@cv@@@std@@QBEIXZ PROC ; std::allocator<cv::CascadeClassifier::Data::DTree>::max_size, COMDAT

; 218  : 		_SIZT _Count = (_SIZT)(-1) / sizeof (_Ty);
; 219  : 		return (0 < _Count ? _Count : 1);

	mov	eax, 1073741823				; 3fffffffH

; 220  : 		}

	ret	0
?max_size@?$allocator@UDTree@Data@CascadeClassifier@cv@@@std@@QBEIXZ ENDP ; std::allocator<cv::CascadeClassifier::Data::DTree>::max_size
; Function compile flags: /Ogtp
_TEXT	ENDS
;	COMDAT ?max_size@?$allocator@UStage@Data@CascadeClassifier@cv@@@std@@QBEIXZ
_TEXT	SEGMENT
?max_size@?$allocator@UStage@Data@CascadeClassifier@cv@@@std@@QBEIXZ PROC ; std::allocator<cv::CascadeClassifier::Data::Stage>::max_size, COMDAT

; 218  : 		_SIZT _Count = (_SIZT)(-1) / sizeof (_Ty);
; 219  : 		return (0 < _Count ? _Count : 1);

	mov	eax, 357913941				; 15555555H

; 220  : 		}

	ret	0
?max_size@?$allocator@UStage@Data@CascadeClassifier@cv@@@std@@QBEIXZ ENDP ; std::allocator<cv::CascadeClassifier::Data::Stage>::max_size
; Function compile flags: /Ogtp
_TEXT	ENDS
;	COMDAT ?max_size@?$allocator@H@std@@QBEIXZ
_TEXT	SEGMENT
?max_size@?$allocator@H@std@@QBEIXZ PROC		; std::allocator<int>::max_size, COMDAT

; 218  : 		_SIZT _Count = (_SIZT)(-1) / sizeof (_Ty);
; 219  : 		return (0 < _Count ? _Count : 1);

	mov	eax, 1073741823				; 3fffffffH

; 220  : 		}

	ret	0
?max_size@?$allocator@H@std@@QBEIXZ ENDP		; std::allocator<int>::max_size
; Function compile flags: /Ogtp
; File c:\programs & apps\visual studio 10\vc\include\xstring
_TEXT	ENDS
;	COMDAT ?_Xlen@?$basic_string@DU?$char_traits@D@std@@V?$allocator@D@2@@std@@QBEXXZ
_TEXT	SEGMENT
?_Xlen@?$basic_string@DU?$char_traits@D@std@@V?$allocator@D@2@@std@@QBEXXZ PROC ; std::basic_string<char,std::char_traits<char>,std::allocator<char> >::_Xlen, COMDAT

; 2015 : 		_Xlength_error("string too long");

	push	OFFSET ??_C@_0BA@JFNIOLAK@string?5too?5long?$AA@
	call	DWORD PTR __imp_?_Xlength_error@std@@YAXPBD@Z
$LN4@Xlen:
$LN3@Xlen:
	int	3
?_Xlen@?$basic_string@DU?$char_traits@D@std@@V?$allocator@D@2@@std@@QBEXXZ ENDP ; std::basic_string<char,std::char_traits<char>,std::allocator<char> >::_Xlen
; Function compile flags: /Ogtp
_TEXT	ENDS
;	COMDAT ?max_size@?$basic_string@DU?$char_traits@D@std@@V?$allocator@D@2@@std@@QBEIXZ
_TEXT	SEGMENT
?max_size@?$basic_string@DU?$char_traits@D@std@@V?$allocator@D@2@@std@@QBEIXZ PROC ; std::basic_string<char,std::char_traits<char>,std::allocator<char> >::max_size, COMDAT

; 1516 : 		size_type _Num = this->_Alval.max_size();
; 1517 : 		return (_Num <= 1 ? 1 : _Num - 1);

	mov	eax, -2					; fffffffeH

; 1518 : 		}

	ret	0
?max_size@?$basic_string@DU?$char_traits@D@std@@V?$allocator@D@2@@std@@QBEIXZ ENDP ; std::basic_string<char,std::char_traits<char>,std::allocator<char> >::max_size
; Function compile flags: /Ogtp
; File c:\programs & apps\visual studio 10\vc\include\xmemory
_TEXT	ENDS
;	COMDAT ?deallocate@?$allocator@V?$Vec@H$03@cv@@@std@@QAEXPAV?$Vec@H$03@cv@@I@Z
_TEXT	SEGMENT
?deallocate@?$allocator@V?$Vec@H$03@cv@@@std@@QAEXPAV?$Vec@H$03@cv@@I@Z PROC ; std::allocator<cv::Vec<int,4> >::deallocate, COMDAT
; __Ptr$ = eax

; 182  : 		::operator delete(_Ptr);

	push	eax
	call	DWORD PTR __imp_??3@YAXPAX@Z
	pop	ecx

; 183  : 		}

	ret	0
?deallocate@?$allocator@V?$Vec@H$03@cv@@@std@@QAEXPAV?$Vec@H$03@cv@@I@Z ENDP ; std::allocator<cv::Vec<int,4> >::deallocate
; Function compile flags: /Ogtp
_TEXT	ENDS
;	COMDAT ??0?$allocator@V?$Vec@H$03@cv@@@std@@QAE@ABV01@@Z
_TEXT	SEGMENT
??0?$allocator@V?$Vec@H$03@cv@@@std@@QAE@ABV01@@Z PROC	; std::allocator<cv::Vec<int,4> >::allocator<cv::Vec<int,4> >, COMDAT
; _this$ = eax

; 166  : 		{	// construct by copying (do nothing)
; 167  : 		}

	ret	0
??0?$allocator@V?$Vec@H$03@cv@@@std@@QAE@ABV01@@Z ENDP	; std::allocator<cv::Vec<int,4> >::allocator<cv::Vec<int,4> >
; Function compile flags: /Ogtp
; File c:\programs & apps\visual studio 10\vc\include\vector
_TEXT	ENDS
;	COMDAT ?_Destroy@?$vector@V?$Vec@H$03@cv@@V?$allocator@V?$Vec@H$03@cv@@@std@@@std@@IAEXPAV?$Vec@H$03@cv@@0@Z
_TEXT	SEGMENT
?_Destroy@?$vector@V?$Vec@H$03@cv@@V?$allocator@V?$Vec@H$03@cv@@@std@@@std@@IAEXPAV?$Vec@H$03@cv@@0@Z PROC ; std::vector<cv::Vec<int,4>,std::allocator<cv::Vec<int,4> > >::_Destroy, COMDAT

; 1270 : 		_Destroy_range(_First, _Last, this->_Alval);
; 1271 : 		}

	ret	0
?_Destroy@?$vector@V?$Vec@H$03@cv@@V?$allocator@V?$Vec@H$03@cv@@@std@@@std@@IAEXPAV?$Vec@H$03@cv@@0@Z ENDP ; std::vector<cv::Vec<int,4>,std::allocator<cv::Vec<int,4> > >::_Destroy
; Function compile flags: /Ogtp
; File c:\programs & apps\visual studio 10\vc\include\xmemory
_TEXT	ENDS
;	COMDAT ?deallocate@?$allocator@V?$vector@V?$Point_@H@cv@@V?$allocator@V?$Point_@H@cv@@@std@@@std@@@std@@QAEXPAV?$vector@V?$Point_@H@cv@@V?$allocator@V?$Point_@H@cv@@@std@@@2@I@Z
_TEXT	SEGMENT
?deallocate@?$allocator@V?$vector@V?$Point_@H@cv@@V?$allocator@V?$Point_@H@cv@@@std@@@std@@@std@@QAEXPAV?$vector@V?$Point_@H@cv@@V?$allocator@V?$Point_@H@cv@@@std@@@2@I@Z PROC ; std::allocator<std::vector<cv::Point_<int>,std::allocator<cv::Point_<int> > > >::deallocate, COMDAT
; __Ptr$ = eax

; 182  : 		::operator delete(_Ptr);

	push	eax
	call	DWORD PTR __imp_??3@YAXPAX@Z
	pop	ecx

; 183  : 		}

	ret	0
?deallocate@?$allocator@V?$vector@V?$Point_@H@cv@@V?$allocator@V?$Point_@H@cv@@@std@@@std@@@std@@QAEXPAV?$vector@V?$Point_@H@cv@@V?$allocator@V?$Point_@H@cv@@@std@@@2@I@Z ENDP ; std::allocator<std::vector<cv::Point_<int>,std::allocator<cv::Point_<int> > > >::deallocate
; Function compile flags: /Ogtp
_TEXT	ENDS
;	COMDAT ??0?$allocator@V?$vector@V?$Point_@H@cv@@V?$allocator@V?$Point_@H@cv@@@std@@@std@@@std@@QAE@ABV01@@Z
_TEXT	SEGMENT
??0?$allocator@V?$vector@V?$Point_@H@cv@@V?$allocator@V?$Point_@H@cv@@@std@@@std@@@std@@QAE@ABV01@@Z PROC ; std::allocator<std::vector<cv::Point_<int>,std::allocator<cv::Point_<int> > > >::allocator<std::vector<cv::Point_<int>,std::allocator<cv::Point_<int> > > >, COMDAT
; _this$ = eax

; 166  : 		{	// construct by copying (do nothing)
; 167  : 		}

	ret	0
??0?$allocator@V?$vector@V?$Point_@H@cv@@V?$allocator@V?$Point_@H@cv@@@std@@@std@@@std@@QAE@ABV01@@Z ENDP ; std::allocator<std::vector<cv::Point_<int>,std::allocator<cv::Point_<int> > > >::allocator<std::vector<cv::Point_<int>,std::allocator<cv::Point_<int> > > >
; Function compile flags: /Ogtp
; File c:\programs & apps\visual studio 10\vc\include\vector
_TEXT	ENDS
;	COMDAT ?_Destroy@?$vector@V?$vector@V?$Point_@H@cv@@V?$allocator@V?$Point_@H@cv@@@std@@@std@@V?$allocator@V?$vector@V?$Point_@H@cv@@V?$allocator@V?$Point_@H@cv@@@std@@@std@@@2@@std@@IAEXPAV?$vector@V?$Point_@H@cv@@V?$allocator@V?$Point_@H@cv@@@std@@@2@0@Z
_TEXT	SEGMENT
?_Destroy@?$vector@V?$vector@V?$Point_@H@cv@@V?$allocator@V?$Point_@H@cv@@@std@@@std@@V?$allocator@V?$vector@V?$Point_@H@cv@@V?$allocator@V?$Point_@H@cv@@@std@@@std@@@2@@std@@IAEXPAV?$vector@V?$Point_@H@cv@@V?$allocator@V?$Point_@H@cv@@@std@@@2@0@Z PROC ; std::vector<std::vector<cv::Point_<int>,std::allocator<cv::Point_<int> > >,std::allocator<std::vector<cv::Point_<int>,std::allocator<cv::Point_<int> > > > >::_Destroy, COMDAT
; __First$ = eax
; __Last$ = ebx

; 1269 : 		{	// destroy [_First, _Last) using allocator

	push	esi
	mov	esi, eax

; 1270 : 		_Destroy_range(_First, _Last, this->_Alval);

	cmp	esi, ebx
	je	SHORT $LN7@Destroy@2
	push	edi
	xor	edi, edi
	npad	6
$LL9@Destroy@2:
	mov	eax, DWORD PTR [esi]
	cmp	eax, edi
	je	SHORT $LN28@Destroy@2
	push	eax
	call	DWORD PTR __imp_??3@YAXPAX@Z
	add	esp, 4
$LN28@Destroy@2:
	mov	DWORD PTR [esi], edi
	mov	DWORD PTR [esi+4], edi
	mov	DWORD PTR [esi+8], edi
	add	esi, 16					; 00000010H
	cmp	esi, ebx
	jne	SHORT $LL9@Destroy@2
	pop	edi
$LN7@Destroy@2:
	pop	esi

; 1271 : 		}

	ret	0
?_Destroy@?$vector@V?$vector@V?$Point_@H@cv@@V?$allocator@V?$Point_@H@cv@@@std@@@std@@V?$allocator@V?$vector@V?$Point_@H@cv@@V?$allocator@V?$Point_@H@cv@@@std@@@std@@@2@@std@@IAEXPAV?$vector@V?$Point_@H@cv@@V?$allocator@V?$Point_@H@cv@@@std@@@2@0@Z ENDP ; std::vector<std::vector<cv::Point_<int>,std::allocator<cv::Point_<int> > >,std::allocator<std::vector<cv::Point_<int>,std::allocator<cv::Point_<int> > > > >::_Destroy
; Function compile flags: /Ogtp
; File c:\programs & apps\visual studio 10\vc\include\xmemory
_TEXT	ENDS
;	COMDAT ?deallocate@?$allocator@V?$Rect_@H@cv@@@std@@QAEXPAV?$Rect_@H@cv@@I@Z
_TEXT	SEGMENT
?deallocate@?$allocator@V?$Rect_@H@cv@@@std@@QAEXPAV?$Rect_@H@cv@@I@Z PROC ; std::allocator<cv::Rect_<int> >::deallocate, COMDAT
; __Ptr$ = eax

; 182  : 		::operator delete(_Ptr);

	push	eax
	call	DWORD PTR __imp_??3@YAXPAX@Z
	pop	ecx

; 183  : 		}

	ret	0
?deallocate@?$allocator@V?$Rect_@H@cv@@@std@@QAEXPAV?$Rect_@H@cv@@I@Z ENDP ; std::allocator<cv::Rect_<int> >::deallocate
; Function compile flags: /Ogtp
_TEXT	ENDS
;	COMDAT ??0?$allocator@V?$Rect_@H@cv@@@std@@QAE@ABV01@@Z
_TEXT	SEGMENT
??0?$allocator@V?$Rect_@H@cv@@@std@@QAE@ABV01@@Z PROC	; std::allocator<cv::Rect_<int> >::allocator<cv::Rect_<int> >, COMDAT
; _this$ = eax

; 166  : 		{	// construct by copying (do nothing)
; 167  : 		}

	ret	0
??0?$allocator@V?$Rect_@H@cv@@@std@@QAE@ABV01@@Z ENDP	; std::allocator<cv::Rect_<int> >::allocator<cv::Rect_<int> >
; Function compile flags: /Ogtp
; File c:\programs & apps\visual studio 10\vc\include\vector
_TEXT	ENDS
;	COMDAT ?_Destroy@?$vector@V?$Rect_@H@cv@@V?$allocator@V?$Rect_@H@cv@@@std@@@std@@IAEXPAV?$Rect_@H@cv@@0@Z
_TEXT	SEGMENT
?_Destroy@?$vector@V?$Rect_@H@cv@@V?$allocator@V?$Rect_@H@cv@@@std@@@std@@IAEXPAV?$Rect_@H@cv@@0@Z PROC ; std::vector<cv::Rect_<int>,std::allocator<cv::Rect_<int> > >::_Destroy, COMDAT

; 1270 : 		_Destroy_range(_First, _Last, this->_Alval);
; 1271 : 		}

	ret	0
?_Destroy@?$vector@V?$Rect_@H@cv@@V?$allocator@V?$Rect_@H@cv@@@std@@@std@@IAEXPAV?$Rect_@H@cv@@0@Z ENDP ; std::vector<cv::Rect_<int>,std::allocator<cv::Rect_<int> > >::_Destroy
; Function compile flags: /Ogtp
; File c:\programs & apps\visual studio 10\vc\include\xmemory
_TEXT	ENDS
;	COMDAT ?deallocate@?$allocator@M@std@@QAEXPAMI@Z
_TEXT	SEGMENT
?deallocate@?$allocator@M@std@@QAEXPAMI@Z PROC		; std::allocator<float>::deallocate, COMDAT
; __Ptr$ = eax

; 182  : 		::operator delete(_Ptr);

	push	eax
	call	DWORD PTR __imp_??3@YAXPAX@Z
	pop	ecx

; 183  : 		}

	ret	0
?deallocate@?$allocator@M@std@@QAEXPAMI@Z ENDP		; std::allocator<float>::deallocate
; Function compile flags: /Ogtp
; File c:\programs & apps\visual studio 10\vc\include\vector
_TEXT	ENDS
;	COMDAT ?_Xlen@?$vector@MV?$allocator@M@std@@@std@@IBEXXZ
_TEXT	SEGMENT
?_Xlen@?$vector@MV?$allocator@M@std@@@std@@IBEXXZ PROC	; std::vector<float,std::allocator<float> >::_Xlen, COMDAT

; 1427 : 		_Xlength_error("vector<T> too long");

	push	OFFSET ??_C@_0BD@OLBABOEK@vector?$DMT?$DO?5too?5long?$AA@
	call	DWORD PTR __imp_?_Xlength_error@std@@YAXPBD@Z
$LN4@Xlen@2:
$LN3@Xlen@2:
	int	3
?_Xlen@?$vector@MV?$allocator@M@std@@@std@@IBEXXZ ENDP	; std::vector<float,std::allocator<float> >::_Xlen
; Function compile flags: /Ogtp
_TEXT	ENDS
;	COMDAT ?_Destroy@?$vector@MV?$allocator@M@std@@@std@@IAEXPAM0@Z
_TEXT	SEGMENT
?_Destroy@?$vector@MV?$allocator@M@std@@@std@@IAEXPAM0@Z PROC ; std::vector<float,std::allocator<float> >::_Destroy, COMDAT

; 1270 : 		_Destroy_range(_First, _Last, this->_Alval);
; 1271 : 		}

	ret	0
?_Destroy@?$vector@MV?$allocator@M@std@@@std@@IAEXPAM0@Z ENDP ; std::vector<float,std::allocator<float> >::_Destroy
; Function compile flags: /Ogtp
_TEXT	ENDS
;	COMDAT ?max_size@?$vector@MV?$allocator@M@std@@@std@@QBEIXZ
_TEXT	SEGMENT
?max_size@?$vector@MV?$allocator@M@std@@@std@@QBEIXZ PROC ; std::vector<float,std::allocator<float> >::max_size, COMDAT

; 884  : 		return (this->_Alval.max_size());

	mov	eax, 1073741823				; 3fffffffH

; 885  : 		}

	ret	0
?max_size@?$vector@MV?$allocator@M@std@@@std@@QBEIXZ ENDP ; std::vector<float,std::allocator<float> >::max_size
; Function compile flags: /Ogtp
; File c:\programs & apps\visual studio 10\vc\include\xmemory
_TEXT	ENDS
;	COMDAT ?deallocate@?$allocator@UDTreeNode@Data@CascadeClassifier@cv@@@std@@QAEXPAUDTreeNode@Data@CascadeClassifier@cv@@I@Z
_TEXT	SEGMENT
?deallocate@?$allocator@UDTreeNode@Data@CascadeClassifier@cv@@@std@@QAEXPAUDTreeNode@Data@CascadeClassifier@cv@@I@Z PROC ; std::allocator<cv::CascadeClassifier::Data::DTreeNode>::deallocate, COMDAT
; __Ptr$ = eax

; 182  : 		::operator delete(_Ptr);

	push	eax
	call	DWORD PTR __imp_??3@YAXPAX@Z
	pop	ecx

; 183  : 		}

	ret	0
?deallocate@?$allocator@UDTreeNode@Data@CascadeClassifier@cv@@@std@@QAEXPAUDTreeNode@Data@CascadeClassifier@cv@@I@Z ENDP ; std::allocator<cv::CascadeClassifier::Data::DTreeNode>::deallocate
; Function compile flags: /Ogtp
; File c:\programs & apps\visual studio 10\vc\include\vector
_TEXT	ENDS
;	COMDAT ?_Xlen@?$vector@UDTreeNode@Data@CascadeClassifier@cv@@V?$allocator@UDTreeNode@Data@CascadeClassifier@cv@@@std@@@std@@IBEXXZ
_TEXT	SEGMENT
?_Xlen@?$vector@UDTreeNode@Data@CascadeClassifier@cv@@V?$allocator@UDTreeNode@Data@CascadeClassifier@cv@@@std@@@std@@IBEXXZ PROC ; std::vector<cv::CascadeClassifier::Data::DTreeNode,std::allocator<cv::CascadeClassifier::Data::DTreeNode> >::_Xlen, COMDAT

; 1427 : 		_Xlength_error("vector<T> too long");

	push	OFFSET ??_C@_0BD@OLBABOEK@vector?$DMT?$DO?5too?5long?$AA@
	call	DWORD PTR __imp_?_Xlength_error@std@@YAXPBD@Z
$LN4@Xlen@3:
$LN3@Xlen@3:
	int	3
?_Xlen@?$vector@UDTreeNode@Data@CascadeClassifier@cv@@V?$allocator@UDTreeNode@Data@CascadeClassifier@cv@@@std@@@std@@IBEXXZ ENDP ; std::vector<cv::CascadeClassifier::Data::DTreeNode,std::allocator<cv::CascadeClassifier::Data::DTreeNode> >::_Xlen
; Function compile flags: /Ogtp
_TEXT	ENDS
;	COMDAT ?_Destroy@?$vector@UDTreeNode@Data@CascadeClassifier@cv@@V?$allocator@UDTreeNode@Data@CascadeClassifier@cv@@@std@@@std@@IAEXPAUDTreeNode@Data@CascadeClassifier@cv@@0@Z
_TEXT	SEGMENT
?_Destroy@?$vector@UDTreeNode@Data@CascadeClassifier@cv@@V?$allocator@UDTreeNode@Data@CascadeClassifier@cv@@@std@@@std@@IAEXPAUDTreeNode@Data@CascadeClassifier@cv@@0@Z PROC ; std::vector<cv::CascadeClassifier::Data::DTreeNode,std::allocator<cv::CascadeClassifier::Data::DTreeNode> >::_Destroy, COMDAT

; 1270 : 		_Destroy_range(_First, _Last, this->_Alval);
; 1271 : 		}

	ret	0
?_Destroy@?$vector@UDTreeNode@Data@CascadeClassifier@cv@@V?$allocator@UDTreeNode@Data@CascadeClassifier@cv@@@std@@@std@@IAEXPAUDTreeNode@Data@CascadeClassifier@cv@@0@Z ENDP ; std::vector<cv::CascadeClassifier::Data::DTreeNode,std::allocator<cv::CascadeClassifier::Data::DTreeNode> >::_Destroy
; Function compile flags: /Ogtp
_TEXT	ENDS
;	COMDAT ?max_size@?$vector@UDTreeNode@Data@CascadeClassifier@cv@@V?$allocator@UDTreeNode@Data@CascadeClassifier@cv@@@std@@@std@@QBEIXZ
_TEXT	SEGMENT
?max_size@?$vector@UDTreeNode@Data@CascadeClassifier@cv@@V?$allocator@UDTreeNode@Data@CascadeClassifier@cv@@@std@@@std@@QBEIXZ PROC ; std::vector<cv::CascadeClassifier::Data::DTreeNode,std::allocator<cv::CascadeClassifier::Data::DTreeNode> >::max_size, COMDAT

; 884  : 		return (this->_Alval.max_size());

	mov	eax, 268435455				; 0fffffffH

; 885  : 		}

	ret	0
?max_size@?$vector@UDTreeNode@Data@CascadeClassifier@cv@@V?$allocator@UDTreeNode@Data@CascadeClassifier@cv@@@std@@@std@@QBEIXZ ENDP ; std::vector<cv::CascadeClassifier::Data::DTreeNode,std::allocator<cv::CascadeClassifier::Data::DTreeNode> >::max_size
; Function compile flags: /Ogtp
; File c:\programs & apps\visual studio 10\vc\include\xmemory
_TEXT	ENDS
;	COMDAT ?deallocate@?$allocator@UDTree@Data@CascadeClassifier@cv@@@std@@QAEXPAUDTree@Data@CascadeClassifier@cv@@I@Z
_TEXT	SEGMENT
?deallocate@?$allocator@UDTree@Data@CascadeClassifier@cv@@@std@@QAEXPAUDTree@Data@CascadeClassifier@cv@@I@Z PROC ; std::allocator<cv::CascadeClassifier::Data::DTree>::deallocate, COMDAT
; __Ptr$ = eax

; 182  : 		::operator delete(_Ptr);

	push	eax
	call	DWORD PTR __imp_??3@YAXPAX@Z
	pop	ecx

; 183  : 		}

	ret	0
?deallocate@?$allocator@UDTree@Data@CascadeClassifier@cv@@@std@@QAEXPAUDTree@Data@CascadeClassifier@cv@@I@Z ENDP ; std::allocator<cv::CascadeClassifier::Data::DTree>::deallocate
; Function compile flags: /Ogtp
; File c:\programs & apps\visual studio 10\vc\include\vector
_TEXT	ENDS
;	COMDAT ?_Xlen@?$vector@UDTree@Data@CascadeClassifier@cv@@V?$allocator@UDTree@Data@CascadeClassifier@cv@@@std@@@std@@IBEXXZ
_TEXT	SEGMENT
